
out.elf:     file format elf32-tradlittlemips


Disassembly of section .config_BFC02FF0:

bfc02ff0 <__config_BFC02FF0>:
bfc02ff0:	ff ff fe fa                                         ....

Disassembly of section .config_BFC02FF4:

bfc02ff4 <__config_BFC02FF4>:
bfc02ff4:	d9 79 f8 ff                                         .y..

Disassembly of section .config_BFC02FF8:

bfc02ff8 <__config_BFC02FF8>:
bfc02ff8:	db ce 6c ff                                         ..l.

Disassembly of section .config_BFC02FFC:

bfc02ffc <__config_BFC02FFC>:
bfc02ffc:	ff ff ff 7e                                         ...~

Disassembly of section .reset:

bd001970 <_reset>:
bd001970:	0f40065e 	jal	bd001978 <_startup>
bd001974:	00000000 	nop

bd001978 <_startup>:
bd001978:	401a6000 	mfc0	k0,c0_status
bd00197c:	7f5a04c0 	ext	k0,k0,0x13,0x1
bd001980:	13400005 	beqz	k0,bd001998 <_no_nmi>
bd001984:	00000000 	nop
bd001988:	3c1a9d00 	lui	k0,0x9d00
bd00198c:	275a53fc 	addiu	k0,k0,21500
bd001990:	03400008 	jr	k0
bd001994:	00000000 	nop

bd001998 <_no_nmi>:
bd001998:	3c1da002 	lui	sp,0xa002
bd00199c:	27bdfff0 	addiu	sp,sp,-16
bd0019a0:	3c1ca000 	lui	gp,0xa000
bd0019a4:	279c7ff0 	addiu	gp,gp,32752
bd0019a8:	40096002 	mfc0	t1,c0_srsctl
bd0019ac:	01205820 	add	t3,t1,zero
bd0019b0:	7d2a1e80 	ext	t2,t1,0x1a,0x4
bd0019b4:	7d494984 	ins	t1,t2,0x6,0x4
bd0019b8:	40896002 	mtc0	t1,c0_srsctl
bd0019bc:	000000c0 	ehb
bd0019c0:	41dce000 	wrpgpr	gp,gp
bd0019c4:	408b6002 	mtc0	t3,c0_srsctl
bd0019c8:	000000c0 	ehb
bd0019cc:	3c089d00 	lui	t0,0x9d00
bd0019d0:	25085464 	addiu	t0,t0,21604
bd0019d4:	0100f809 	jalr	t0
bd0019d8:	00000000 	nop

bd0019dc <_start_bss_init>:
bd0019dc:	3c08a000 	lui	t0,0xa000
bd0019e0:	25080008 	addiu	t0,t0,8
bd0019e4:	3c09a000 	lui	t1,0xa000
bd0019e8:	25290010 	addiu	t1,t1,16
bd0019ec:	10000006 	b	bd001a08 <_bss_check>
bd0019f0:	00000000 	nop

bd0019f4 <_bss_init>:
bd0019f4:	ad000000 	sw	zero,0(t0)
bd0019f8:	ad000004 	sw	zero,4(t0)
bd0019fc:	ad000008 	sw	zero,8(t0)
bd001a00:	ad00000c 	sw	zero,12(t0)
bd001a04:	25080010 	addiu	t0,t0,16

bd001a08 <_bss_check>:
bd001a08:	0109082b 	sltu	at,t0,t1
bd001a0c:	1420fff9 	bnez	at,bd0019f4 <_bss_init>
bd001a10:	00000000 	nop

bd001a14 <_dinit_init>:
bd001a14:	3c089d00 	lui	t0,0x9d00
bd001a18:	250843ec 	addiu	t0,t0,17388
bd001a1c:	8d090000 	lw	t1,0(t0)
bd001a20:	11200018 	beqz	t1,bd001a84 <_dinit_end+0x18>
bd001a24:	25080004 	addiu	t0,t0,4
bd001a28:	8d0a0000 	lw	t2,0(t0)
bd001a2c:	25080004 	addiu	t0,t0,4
bd001a30:	8d0b0000 	lw	t3,0(t0)
bd001a34:	11600009 	beqz	t3,bd001a5c <_dinit_clear>
bd001a38:	25080004 	addiu	t0,t0,4

bd001a3c <_dinit_copy>:
bd001a3c:	910c0000 	lbu	t4,0(t0)
bd001a40:	254affff 	addiu	t2,t2,-1
bd001a44:	25080001 	addiu	t0,t0,1
bd001a48:	a12c0000 	sb	t4,0(t1)
bd001a4c:	1540fffb 	bnez	t2,bd001a3c <_dinit_copy>
bd001a50:	25290001 	addiu	t1,t1,1
bd001a54:	10000005 	b	bd001a6c <_dinit_end>
bd001a58:	00000000 	nop

bd001a5c <_dinit_clear>:
bd001a5c:	a1200000 	sb	zero,0(t1)
bd001a60:	254affff 	addiu	t2,t2,-1
bd001a64:	1540fffd 	bnez	t2,bd001a5c <_dinit_clear>
bd001a68:	25290001 	addiu	t1,t1,1

bd001a6c <_dinit_end>:
bd001a6c:	25080003 	addiu	t0,t0,3
bd001a70:	240afffc 	li	t2,-4
bd001a74:	01484024 	and	t0,t2,t0
bd001a78:	8d090000 	lw	t1,0(t0)
bd001a7c:	1520ffe7 	bnez	t1,bd001a1c <_dinit_init+0x8>
bd001a80:	00000000 	nop
bd001a84:	3c090000 	lui	t1,0x0
bd001a88:	25290000 	addiu	t1,t1,0
bd001a8c:	11200010 	beqz	t1,bd001ad0 <_ramfunc_done>
bd001a90:	00000000 	nop
bd001a94:	3c090002 	lui	t1,0x2
bd001a98:	25290000 	addiu	t1,t1,0
bd001a9c:	3c0abf88 	lui	t2,0xbf88
bd001aa0:	254a2010 	addiu	t2,t2,8208
bd001aa4:	ad490000 	sw	t1,0(t2)
bd001aa8:	3c090002 	lui	t1,0x2
bd001aac:	25290000 	addiu	t1,t1,0
bd001ab0:	3c0abf88 	lui	t2,0xbf88
bd001ab4:	254a2020 	addiu	t2,t2,8224
bd001ab8:	ad490000 	sw	t1,0(t2)
bd001abc:	3c090002 	lui	t1,0x2
bd001ac0:	25290000 	addiu	t1,t1,0
bd001ac4:	3c0abf88 	lui	t2,0xbf88
bd001ac8:	254a2030 	addiu	t2,t2,8240
bd001acc:	ad490000 	sw	t1,0(t2)

bd001ad0 <_ramfunc_done>:
bd001ad0:	40804800 	mtc0	zero,c0_count
bd001ad4:	240affff 	li	t2,-1
bd001ad8:	408a5800 	mtc0	t2,c0_compare
bd001adc:	3c080040 	lui	t0,0x40
bd001ae0:	400a6000 	mfc0	t2,c0_status
bd001ae4:	010a5025 	or	t2,t0,t2
bd001ae8:	408a6000 	mtc0	t2,c0_status
bd001aec:	3c099d00 	lui	t1,0x9d00
bd001af0:	25290000 	addiu	t1,t1,0
bd001af4:	000000c0 	ehb
bd001af8:	40897801 	mtc0	t1,c0_ebase
bd001afc:	3c090000 	lui	t1,0x0
bd001b00:	25290001 	addiu	t1,t1,1
bd001b04:	240a0000 	li	t2,0
bd001b08:	7d2a4944 	ins	t2,t1,0x5,0x5
bd001b0c:	408a6001 	mtc0	t2,c0_intctl
bd001b10:	3c090080 	lui	t1,0x80
bd001b14:	40896800 	mtc0	t1,c0_cause
bd001b18:	40088000 	mfc0	t0,c0_config
bd001b1c:	7d090580 	ext	t1,t0,0x16,0x1
bd001b20:	00094c40 	sll	t1,t1,0x11
bd001b24:	40086000 	mfc0	t0,c0_status
bd001b28:	3c010058 	lui	at,0x58
bd001b2c:	01014024 	and	t0,t0,at
bd001b30:	01284025 	or	t0,t1,t0
bd001b34:	40886000 	mtc0	t0,c0_status
bd001b38:	000000c0 	ehb
bd001b3c:	3c089d00 	lui	t0,0x9d00
bd001b40:	2508546c 	addiu	t0,t0,21612
bd001b44:	0100f809 	jalr	t0
bd001b48:	00000000 	nop
bd001b4c:	40086000 	mfc0	t0,c0_status
bd001b50:	3c01ffbf 	lui	at,0xffbf
bd001b54:	3421ffff 	ori	at,at,0xffff
bd001b58:	01014024 	and	t0,t0,at
bd001b5c:	40886000 	mtc0	t0,c0_status
bd001b60:	30840000 	andi	a0,a0,0x0
bd001b64:	30a50000 	andi	a1,a1,0x0
bd001b68:	3c089d00 	lui	t0,0x9d00
bd001b6c:	250850b0 	addiu	t0,t0,20656
bd001b70:	01000008 	jr	t0
bd001b74:	00000000 	nop

Disassembly of section .bev_excpt:

bd001cf0 <_bev_exception>:
bd001cf0:	3c1a9d00 	lui	k0,0x9d00
bd001cf4:	275a51f0 	addiu	k0,k0,20976
bd001cf8:	03400008 	jr	k0
bd001cfc:	00000000 	nop

Disassembly of section .app_excpt:

9d000180 <_gen_exception>:
9d000180:	3c1a9d00 	lui	k0,0x9d00
9d000184:	275a4900 	addiu	k0,k0,18688
9d000188:	03400008 	jr	k0
9d00018c:	00000000 	nop

Disassembly of section .vector_0:

9d000200 <__vector_dispatch_0>:
9d000200:	0b4014a0 	j	9d005280 <.LFE0>
9d000204:	00000000 	nop

Disassembly of section .vector_1:

9d000220 <__vector_dispatch_1>:
9d000220:	0b4014a0 	j	9d005280 <.LFE0>
9d000224:	00000000 	nop

Disassembly of section .vector_2:

9d000240 <__vector_dispatch_2>:
9d000240:	0b4014a0 	j	9d005280 <.LFE0>
9d000244:	00000000 	nop

Disassembly of section .vector_3:

9d000260 <__vector_dispatch_3>:
9d000260:	0b4014a0 	j	9d005280 <.LFE0>
9d000264:	00000000 	nop

Disassembly of section .vector_4:

9d000280 <__vector_dispatch_4>:
9d000280:	0b4014a0 	j	9d005280 <.LFE0>
9d000284:	00000000 	nop

Disassembly of section .vector_5:

9d0002a0 <__vector_dispatch_5>:
9d0002a0:	0b4014a0 	j	9d005280 <.LFE0>
9d0002a4:	00000000 	nop

Disassembly of section .vector_6:

9d0002c0 <__vector_dispatch_6>:
9d0002c0:	0b4014a0 	j	9d005280 <.LFE0>
9d0002c4:	00000000 	nop

Disassembly of section .vector_7:

9d0002e0 <__vector_dispatch_7>:
9d0002e0:	0b4014a0 	j	9d005280 <.LFE0>
9d0002e4:	00000000 	nop

Disassembly of section .vector_8:

9d000300 <__vector_dispatch_8>:
9d000300:	0b400dbb 	j	9d0036ec <Controller>
9d000304:	00000000 	nop

Disassembly of section .vector_9:

9d000320 <__vector_dispatch_9>:
9d000320:	0b4014a0 	j	9d005280 <.LFE0>
9d000324:	00000000 	nop

Disassembly of section .vector_10:

9d000340 <__vector_dispatch_10>:
9d000340:	0b4014a0 	j	9d005280 <.LFE0>
9d000344:	00000000 	nop

Disassembly of section .vector_11:

9d000360 <__vector_dispatch_11>:
9d000360:	0b4014a0 	j	9d005280 <.LFE0>
9d000364:	00000000 	nop

Disassembly of section .vector_12:

9d000380 <__vector_dispatch_12>:
9d000380:	0b4014a0 	j	9d005280 <.LFE0>
9d000384:	00000000 	nop

Disassembly of section .vector_13:

9d0003a0 <__vector_dispatch_13>:
9d0003a0:	0b4014a0 	j	9d005280 <.LFE0>
9d0003a4:	00000000 	nop

Disassembly of section .vector_14:

9d0003c0 <__vector_dispatch_14>:
9d0003c0:	0b4014a0 	j	9d005280 <.LFE0>
9d0003c4:	00000000 	nop

Disassembly of section .vector_15:

9d0003e0 <__vector_dispatch_15>:
9d0003e0:	0b4014a0 	j	9d005280 <.LFE0>
9d0003e4:	00000000 	nop

Disassembly of section .vector_16:

9d000400 <__vector_dispatch_16>:
9d000400:	0b4014a0 	j	9d005280 <.LFE0>
9d000404:	00000000 	nop

Disassembly of section .vector_17:

9d000420 <__vector_dispatch_17>:
9d000420:	0b4014a0 	j	9d005280 <.LFE0>
9d000424:	00000000 	nop

Disassembly of section .vector_18:

9d000440 <__vector_dispatch_18>:
9d000440:	0b4014a0 	j	9d005280 <.LFE0>
9d000444:	00000000 	nop

Disassembly of section .vector_19:

9d000460 <__vector_dispatch_19>:
9d000460:	0b4014a0 	j	9d005280 <.LFE0>
9d000464:	00000000 	nop

Disassembly of section .vector_20:

9d000480 <__vector_dispatch_20>:
9d000480:	0b4014a0 	j	9d005280 <.LFE0>
9d000484:	00000000 	nop

Disassembly of section .vector_21:

9d0004a0 <__vector_dispatch_21>:
9d0004a0:	0b4014a0 	j	9d005280 <.LFE0>
9d0004a4:	00000000 	nop

Disassembly of section .vector_22:

9d0004c0 <__vector_dispatch_22>:
9d0004c0:	0b4014a0 	j	9d005280 <.LFE0>
9d0004c4:	00000000 	nop

Disassembly of section .vector_23:

9d0004e0 <__vector_dispatch_23>:
9d0004e0:	0b4014a0 	j	9d005280 <.LFE0>
9d0004e4:	00000000 	nop

Disassembly of section .vector_24:

9d000500 <__vector_dispatch_24>:
9d000500:	0b4014a0 	j	9d005280 <.LFE0>
9d000504:	00000000 	nop

Disassembly of section .vector_25:

9d000520 <__vector_dispatch_25>:
9d000520:	0b4014a0 	j	9d005280 <.LFE0>
9d000524:	00000000 	nop

Disassembly of section .vector_26:

9d000540 <__vector_dispatch_26>:
9d000540:	0b4014a0 	j	9d005280 <.LFE0>
9d000544:	00000000 	nop

Disassembly of section .vector_27:

9d000560 <__vector_dispatch_27>:
9d000560:	0b4014a0 	j	9d005280 <.LFE0>
9d000564:	00000000 	nop

Disassembly of section .vector_28:

9d000580 <__vector_dispatch_28>:
9d000580:	0b4014a0 	j	9d005280 <.LFE0>
9d000584:	00000000 	nop

Disassembly of section .vector_29:

9d0005a0 <__vector_dispatch_29>:
9d0005a0:	0b4014a0 	j	9d005280 <.LFE0>
9d0005a4:	00000000 	nop

Disassembly of section .vector_30:

9d0005c0 <__vector_dispatch_30>:
9d0005c0:	0b4014a0 	j	9d005280 <.LFE0>
9d0005c4:	00000000 	nop

Disassembly of section .vector_31:

9d0005e0 <__vector_dispatch_31>:
9d0005e0:	0b4014a0 	j	9d005280 <.LFE0>
9d0005e4:	00000000 	nop

Disassembly of section .vector_32:

9d000600 <__vector_dispatch_32>:
9d000600:	0b4014a0 	j	9d005280 <.LFE0>
9d000604:	00000000 	nop

Disassembly of section .vector_33:

9d000620 <__vector_dispatch_33>:
9d000620:	0b4014a0 	j	9d005280 <.LFE0>
9d000624:	00000000 	nop

Disassembly of section .vector_34:

9d000640 <__vector_dispatch_34>:
9d000640:	0b4014a0 	j	9d005280 <.LFE0>
9d000644:	00000000 	nop

Disassembly of section .vector_35:

9d000660 <__vector_dispatch_35>:
9d000660:	0b4014a0 	j	9d005280 <.LFE0>
9d000664:	00000000 	nop

Disassembly of section .vector_36:

9d000680 <__vector_dispatch_36>:
9d000680:	0b4014a0 	j	9d005280 <.LFE0>
9d000684:	00000000 	nop

Disassembly of section .vector_37:

9d0006a0 <__vector_dispatch_37>:
9d0006a0:	0b4014a0 	j	9d005280 <.LFE0>
9d0006a4:	00000000 	nop

Disassembly of section .vector_38:

9d0006c0 <__vector_dispatch_38>:
9d0006c0:	0b4014a0 	j	9d005280 <.LFE0>
9d0006c4:	00000000 	nop

Disassembly of section .vector_39:

9d0006e0 <__vector_dispatch_39>:
9d0006e0:	0b4014a0 	j	9d005280 <.LFE0>
9d0006e4:	00000000 	nop

Disassembly of section .vector_40:

9d000700 <__vector_dispatch_40>:
9d000700:	0b4014a0 	j	9d005280 <.LFE0>
9d000704:	00000000 	nop

Disassembly of section .vector_41:

9d000720 <__vector_dispatch_41>:
9d000720:	0b4014a0 	j	9d005280 <.LFE0>
9d000724:	00000000 	nop

Disassembly of section .vector_42:

9d000740 <__vector_dispatch_42>:
9d000740:	0b4014a0 	j	9d005280 <.LFE0>
9d000744:	00000000 	nop

Disassembly of section .vector_43:

9d000760 <__vector_dispatch_43>:
9d000760:	0b4014a0 	j	9d005280 <.LFE0>
9d000764:	00000000 	nop

Disassembly of section .vector_44:

9d000780 <__vector_dispatch_44>:
9d000780:	0b4014a0 	j	9d005280 <.LFE0>
9d000784:	00000000 	nop

Disassembly of section .vector_45:

9d0007a0 <__vector_dispatch_45>:
9d0007a0:	0b4014a0 	j	9d005280 <.LFE0>
9d0007a4:	00000000 	nop

Disassembly of section .vector_46:

9d0007c0 <__vector_dispatch_46>:
9d0007c0:	0b4014a0 	j	9d005280 <.LFE0>
9d0007c4:	00000000 	nop

Disassembly of section .vector_47:

9d0007e0 <__vector_dispatch_47>:
9d0007e0:	0b4014a0 	j	9d005280 <.LFE0>
9d0007e4:	00000000 	nop

Disassembly of section .vector_48:

9d000800 <__vector_dispatch_48>:
9d000800:	0b4014a0 	j	9d005280 <.LFE0>
9d000804:	00000000 	nop

Disassembly of section .vector_49:

9d000820 <__vector_dispatch_49>:
9d000820:	0b4014a0 	j	9d005280 <.LFE0>
9d000824:	00000000 	nop

Disassembly of section .vector_50:

9d000840 <__vector_dispatch_50>:
9d000840:	0b4014a0 	j	9d005280 <.LFE0>
9d000844:	00000000 	nop

Disassembly of section .vector_51:

9d000860 <__vector_dispatch_51>:
9d000860:	0b4014a0 	j	9d005280 <.LFE0>
9d000864:	00000000 	nop

Disassembly of section ._debug_exception:

bfc00480 <__DbgExecReturn>:
bfc00480:	409bf800 	mtc0	k1,c0_desave
bfc00484:	000000c0 	ehb
bfc00488:	3c1b9d00 	lui	k1,0x9d00
bfc0048c:	277b52c8 	addiu	k1,k1,21192
bfc00490:	13600002 	beqz	k1,bfc0049c <__DbgExecReturn+0x1c>
bfc00494:	00000000 	nop
bfc00498:	409bc000 	mtc0	k1,c0_depc
bfc0049c:	401bf800 	mfc0	k1,c0_desave
bfc004a0:	000000c0 	ehb
bfc004a4:	4200001f 	deret
bfc004a8:	00000000 	nop

Disassembly of section .text._do_print_cdfFnopuxX:

9d001e00 <_do_print_cdfFnopuxX>:
9d001e00:	27bdff60 	addiu	sp,sp,-160
9d001e04:	afbf009c 	sw	ra,156(sp)
9d001e08:	afbe0098 	sw	s8,152(sp)
9d001e0c:	afb70094 	sw	s7,148(sp)
9d001e10:	afb60090 	sw	s6,144(sp)
9d001e14:	afb5008c 	sw	s5,140(sp)
9d001e18:	afb40088 	sw	s4,136(sp)
9d001e1c:	afb30084 	sw	s3,132(sp)
9d001e20:	afb20080 	sw	s2,128(sp)
9d001e24:	afb1007c 	sw	s1,124(sp)
9d001e28:	afb00078 	sw	s0,120(sp)
9d001e2c:	afa400a0 	sw	a0,160(sp)
9d001e30:	8c820018 	lw	v0,24(a0)
9d001e34:	00a09021 	move	s2,a1
9d001e38:	24050001 	li	a1,1
9d001e3c:	8c420010 	lw	v0,16(v0)
9d001e40:	0040f809 	jalr	v0
9d001e44:	afa600a8 	sw	a2,168(sp)
9d001e48:	104001a7 	beqz	v0,9d0024e8 <_do_print_cdfFnopuxX+0x6e8>
9d001e4c:	27a20058 	addiu	v0,sp,88
9d001e50:	afa00068 	sw	zero,104(sp)
9d001e54:	afa20060 	sw	v0,96(sp)
9d001e58:	82440000 	lb	a0,0(s2)
9d001e5c:	1080000d 	beqz	a0,9d001e94 <_do_print_cdfFnopuxX+0x94>
9d001e60:	26500001 	addiu	s0,s2,1
9d001e64:	24020025 	li	v0,37
9d001e68:	5082001c 	beql	a0,v0,9d001edc <_do_print_cdfFnopuxX+0xdc>
9d001e6c:	82420001 	lb	v0,1(s2)
9d001e70:	0f4012e1 	jal	9d004b84 <.LFE0>
9d001e74:	8fa500a0 	lw	a1,160(sp)
9d001e78:	8fa30068 	lw	v1,104(sp)
9d001e7c:	24630001 	addiu	v1,v1,1
9d001e80:	afa30068 	sw	v1,104(sp)
9d001e84:	02009021 	move	s2,s0
9d001e88:	82440000 	lb	a0,0(s2)
9d001e8c:	1480fff5 	bnez	a0,9d001e64 <_do_print_cdfFnopuxX+0x64>
9d001e90:	26500001 	addiu	s0,s2,1
9d001e94:	8fa400a0 	lw	a0,160(sp)
9d001e98:	94820010 	lhu	v0,16(a0)
9d001e9c:	30420040 	andi	v0,v0,0x40
9d001ea0:	14400192 	bnez	v0,9d0024ec <_do_print_cdfFnopuxX+0x6ec>
9d001ea4:	2402ffff 	li	v0,-1
9d001ea8:	8fa20068 	lw	v0,104(sp)
9d001eac:	8fbf009c 	lw	ra,156(sp)
9d001eb0:	8fbe0098 	lw	s8,152(sp)
9d001eb4:	8fb70094 	lw	s7,148(sp)
9d001eb8:	8fb60090 	lw	s6,144(sp)
9d001ebc:	8fb5008c 	lw	s5,140(sp)
9d001ec0:	8fb40088 	lw	s4,136(sp)
9d001ec4:	8fb30084 	lw	s3,132(sp)
9d001ec8:	8fb20080 	lw	s2,128(sp)
9d001ecc:	8fb1007c 	lw	s1,124(sp)
9d001ed0:	8fb00078 	lw	s0,120(sp)
9d001ed4:	03e00008 	jr	ra
9d001ed8:	27bd00a0 	addiu	sp,sp,160
9d001edc:	10440172 	beq	v0,a0,9d0024a8 <_do_print_cdfFnopuxX+0x6a8>
9d001ee0:	0000b821 	move	s7,zero
9d001ee4:	2403002d 	li	v1,45
9d001ee8:	2404002b 	li	a0,43
9d001eec:	24050020 	li	a1,32
9d001ef0:	24060023 	li	a2,35
9d001ef4:	1043000e 	beq	v0,v1,9d001f30 <_do_print_cdfFnopuxX+0x130>
9d001ef8:	24070030 	li	a3,48
9d001efc:	50440010 	beql	v0,a0,9d001f40 <_do_print_cdfFnopuxX+0x140>
9d001f00:	36f70002 	ori	s7,s7,0x2
9d001f04:	50450011 	beql	v0,a1,9d001f4c <_do_print_cdfFnopuxX+0x14c>
9d001f08:	36f70001 	ori	s7,s7,0x1
9d001f0c:	50460012 	beql	v0,a2,9d001f58 <_do_print_cdfFnopuxX+0x158>
9d001f10:	36f70800 	ori	s7,s7,0x800
9d001f14:	54470013 	bnel	v0,a3,9d001f64 <_do_print_cdfFnopuxX+0x164>
9d001f18:	2403002a 	li	v1,42
9d001f1c:	36f70004 	ori	s7,s7,0x4
9d001f20:	26100001 	addiu	s0,s0,1
9d001f24:	82020000 	lb	v0,0(s0)
9d001f28:	1443fff4 	bne	v0,v1,9d001efc <_do_print_cdfFnopuxX+0xfc>
9d001f2c:	00000000 	nop
9d001f30:	36f70008 	ori	s7,s7,0x8
9d001f34:	26100001 	addiu	s0,s0,1
9d001f38:	0b4007ca 	j	9d001f28 <_do_print_cdfFnopuxX+0x128>
9d001f3c:	82020000 	lb	v0,0(s0)
9d001f40:	26100001 	addiu	s0,s0,1
9d001f44:	0b4007ca 	j	9d001f28 <_do_print_cdfFnopuxX+0x128>
9d001f48:	82020000 	lb	v0,0(s0)
9d001f4c:	26100001 	addiu	s0,s0,1
9d001f50:	0b4007ca 	j	9d001f28 <_do_print_cdfFnopuxX+0x128>
9d001f54:	82020000 	lb	v0,0(s0)
9d001f58:	26100001 	addiu	s0,s0,1
9d001f5c:	0b4007ca 	j	9d001f28 <_do_print_cdfFnopuxX+0x128>
9d001f60:	82020000 	lb	v0,0(s0)
9d001f64:	10430126 	beq	v0,v1,9d002400 <_do_print_cdfFnopuxX+0x600>
9d001f68:	02002021 	move	a0,s0
9d001f6c:	2443ffd0 	addiu	v1,v0,-48
9d001f70:	2c63000a 	sltiu	v1,v1,10
9d001f74:	1060000b 	beqz	v1,9d001fa4 <_do_print_cdfFnopuxX+0x1a4>
9d001f78:	0000b021 	move	s6,zero
9d001f7c:	00161840 	sll	v1,s6,0x1
9d001f80:	001650c0 	sll	t2,s6,0x3
9d001f84:	006a5021 	addu	t2,v1,t2
9d001f88:	26100001 	addiu	s0,s0,1
9d001f8c:	01425021 	addu	t2,t2,v0
9d001f90:	82020000 	lb	v0,0(s0)
9d001f94:	2443ffd0 	addiu	v1,v0,-48
9d001f98:	2c63000a 	sltiu	v1,v1,10
9d001f9c:	1460fff7 	bnez	v1,9d001f7c <_do_print_cdfFnopuxX+0x17c>
9d001fa0:	2556ffd0 	addiu	s6,t2,-48
9d001fa4:	2403002e 	li	v1,46
9d001fa8:	104300ee 	beq	v0,v1,9d002364 <_do_print_cdfFnopuxX+0x564>
9d001fac:	241effff 	li	s8,-1
9d001fb0:	24030068 	li	v1,104
9d001fb4:	50430101 	beql	v0,v1,9d0023bc <_do_print_cdfFnopuxX+0x5bc>
9d001fb8:	82030001 	lb	v1,1(s0)
9d001fbc:	2403006c 	li	v1,108
9d001fc0:	10430119 	beq	v0,v1,9d002428 <_do_print_cdfFnopuxX+0x628>
9d001fc4:	24030071 	li	v1,113
9d001fc8:	10430143 	beq	v0,v1,9d0024d8 <_do_print_cdfFnopuxX+0x6d8>
9d001fcc:	2403004c 	li	v1,76
9d001fd0:	504301d0 	beql	v0,v1,9d002714 <_do_print_cdfFnopuxX+0x914>
9d001fd4:	82020001 	lb	v0,1(s0)
9d001fd8:	32e40002 	andi	a0,s7,0x2
9d001fdc:	32e3fffe 	andi	v1,s7,0xfffe
9d001fe0:	0064b80b 	movn	s7,v1,a0
9d001fe4:	2442ffbc 	addiu	v0,v0,-68
9d001fe8:	32e50008 	andi	a1,s7,0x8
9d001fec:	32e4fffb 	andi	a0,s7,0xfffb
9d001ff0:	2c430035 	sltiu	v1,v0,53
9d001ff4:	26120001 	addiu	s2,s0,1
9d001ff8:	106000ff 	beqz	v1,9d0023f8 <_do_print_cdfFnopuxX+0x5f8>
9d001ffc:	0085b80b 	movn	s7,a0,a1
9d002000:	00021080 	sll	v0,v0,0x2
9d002004:	3c049d00 	lui	a0,0x9d00
9d002008:	2484201c 	addiu	a0,a0,8220
9d00200c:	00821021 	addu	v0,a0,v0
9d002010:	8c420000 	lw	v0,0(v0)
9d002014:	00400008 	jr	v0
9d002018:	00000000 	nop
9d00201c:	9d00227c 	0x9d00227c
9d002020:	9d0023f8 	0x9d0023f8
9d002024:	9d0023f8 	0x9d0023f8
9d002028:	9d0023f8 	0x9d0023f8
9d00202c:	9d0023f8 	0x9d0023f8
9d002030:	9d0023f8 	0x9d0023f8
9d002034:	9d0023f8 	0x9d0023f8
9d002038:	9d0023f8 	0x9d0023f8
9d00203c:	9d0023f8 	0x9d0023f8
9d002040:	9d0023f8 	0x9d0023f8
9d002044:	9d0023f8 	0x9d0023f8
9d002048:	9d0026d4 	0x9d0026d4
9d00204c:	9d0022ec 	0x9d0022ec
9d002050:	9d0023f8 	0x9d0023f8
9d002054:	9d0023f8 	0x9d0023f8
9d002058:	9d0023f8 	0x9d0023f8
9d00205c:	9d0023f8 	0x9d0023f8
9d002060:	9d0022dc 	0x9d0022dc
9d002064:	9d0023f8 	0x9d0023f8
9d002068:	9d0023f8 	0x9d0023f8
9d00206c:	9d0020f0 	0x9d0020f0
9d002070:	9d0023f8 	0x9d0023f8
9d002074:	9d0023f8 	0x9d0023f8
9d002078:	9d0023f8 	0x9d0023f8
9d00207c:	9d0023f8 	0x9d0023f8
9d002080:	9d0023f8 	0x9d0023f8
9d002084:	9d0023f8 	0x9d0023f8
9d002088:	9d0023f8 	0x9d0023f8
9d00208c:	9d0023f8 	0x9d0023f8
9d002090:	9d0023f8 	0x9d0023f8
9d002094:	9d0023f8 	0x9d0023f8
9d002098:	9d0026a0 	0x9d0026a0
9d00209c:	9d002280 	0x9d002280
9d0020a0:	9d0023f8 	0x9d0023f8
9d0020a4:	9d00265c 	0x9d00265c
9d0020a8:	9d0023f8 	0x9d0023f8
9d0020ac:	9d0023f8 	0x9d0023f8
9d0020b0:	9d002280 	0x9d002280
9d0020b4:	9d0023f8 	0x9d0023f8
9d0020b8:	9d0023f8 	0x9d0023f8
9d0020bc:	9d0023f8 	0x9d0023f8
9d0020c0:	9d0023f8 	0x9d0023f8
9d0020c4:	9d002614 	0x9d002614
9d0020c8:	9d002598 	0x9d002598
9d0020cc:	9d0022f0 	0x9d0022f0
9d0020d0:	9d0023f8 	0x9d0023f8
9d0020d4:	9d0023f8 	0x9d0023f8
9d0020d8:	9d0025a0 	0x9d0025a0
9d0020dc:	9d0023f8 	0x9d0023f8
9d0020e0:	9d0022e0 	0x9d0022e0
9d0020e4:	9d0023f8 	0x9d0023f8
9d0020e8:	9d0023f8 	0x9d0023f8
9d0020ec:	9d0020f4 	0x9d0020f4
9d0020f0:	36f70020 	ori	s7,s7,0x20
9d0020f4:	24100010 	li	s0,16
9d0020f8:	2402ffff 	li	v0,-1
9d0020fc:	13c20066 	beq	s8,v0,9d002298 <_do_print_cdfFnopuxX+0x498>
9d002100:	00002821 	move	a1,zero
9d002104:	32f7fffb 	andi	s7,s7,0xfffb
9d002108:	27c5ffff 	addiu	a1,s8,-1
9d00210c:	32e200c0 	andi	v0,s7,0xc0
9d002110:	10400065 	beqz	v0,9d0022a8 <_do_print_cdfFnopuxX+0x4a8>
9d002114:	afa2006c 	sw	v0,108(sp)
9d002118:	7c171620 	seh	v0,s7
9d00211c:	0440018f 	bltz	v0,9d00275c <_do_print_cdfFnopuxX+0x95c>
9d002120:	32e20010 	andi	v0,s7,0x10
9d002124:	104000fd 	beqz	v0,9d00251c <_do_print_cdfFnopuxX+0x71c>
9d002128:	32e20041 	andi	v0,s7,0x41
9d00212c:	8fa200a8 	lw	v0,168(sp)
9d002130:	8c550000 	lw	s5,0(v0)
9d002134:	24420004 	addiu	v0,v0,4
9d002138:	0015a7c3 	sra	s4,s5,0x1f
9d00213c:	0680010a 	bltz	s4,9d002568 <_do_print_cdfFnopuxX+0x768>
9d002140:	afa200a8 	sw	v0,168(sp)
9d002144:	afa00074 	sw	zero,116(sp)
9d002148:	128000be 	beqz	s4,9d002444 <_do_print_cdfFnopuxX+0x644>
9d00214c:	02b41025 	or	v0,s5,s4
9d002150:	104001ab 	beqz	v0,9d002800 <_do_print_cdfFnopuxX+0xa00>
9d002154:	27a20057 	addiu	v0,sp,87
9d002158:	afa20070 	sw	v0,112(sp)
9d00215c:	32e30020 	andi	v1,s7,0x20
9d002160:	24040037 	li	a0,55
9d002164:	00108fc3 	sra	s1,s0,0x1f
9d002168:	00409821 	move	s3,v0
9d00216c:	24020057 	li	v0,87
9d002170:	0043200a 	movz	a0,v0,v1
9d002174:	afa40064 	sw	a0,100(sp)
9d002178:	02a02021 	move	a0,s5
9d00217c:	02802821 	move	a1,s4
9d002180:	02003021 	move	a2,s0
9d002184:	0f400b8c 	jal	9d002e30 <__umoddi3>
9d002188:	02203821 	move	a3,s1
9d00218c:	2843000a 	slti	v1,v0,10
9d002190:	24460030 	addiu	a2,v0,48
9d002194:	8fa40064 	lw	a0,100(sp)
9d002198:	00441021 	addu	v0,v0,a0
9d00219c:	0043300a 	movz	a2,v0,v1
9d0021a0:	2673ffff 	addiu	s3,s3,-1
9d0021a4:	02a02021 	move	a0,s5
9d0021a8:	02802821 	move	a1,s4
9d0021ac:	a2660001 	sb	a2,1(s3)
9d0021b0:	02003021 	move	a2,s0
9d0021b4:	0f400ca5 	jal	9d003294 <__udivdi3>
9d0021b8:	02203821 	move	a3,s1
9d0021bc:	00622025 	or	a0,v1,v0
9d0021c0:	0040a821 	move	s5,v0
9d0021c4:	0060a021 	move	s4,v1
9d0021c8:	1480ffeb 	bnez	a0,9d002178 <_do_print_cdfFnopuxX+0x378>
9d0021cc:	27deffff 	addiu	s8,s8,-1
9d0021d0:	27c5ffff 	addiu	a1,s8,-1
9d0021d4:	04a0000a 	bltz	a1,9d002200 <_do_print_cdfFnopuxX+0x400>
9d0021d8:	02601021 	move	v0,s3
9d0021dc:	2664ffff 	addiu	a0,s3,-1
9d0021e0:	00852023 	subu	a0,a0,a1
9d0021e4:	24030030 	li	v1,48
9d0021e8:	a0430000 	sb	v1,0(v0)
9d0021ec:	2442ffff 	addiu	v0,v0,-1
9d0021f0:	5444fffe 	bnel	v0,a0,9d0021ec <_do_print_cdfFnopuxX+0x3ec>
9d0021f4:	a0430000 	sb	v1,0(v0)
9d0021f8:	00052827 	nor	a1,zero,a1
9d0021fc:	02659821 	addu	s3,s3,a1
9d002200:	32e20004 	andi	v0,s7,0x4
9d002204:	1440003d 	bnez	v0,9d0022fc <_do_print_cdfFnopuxX+0x4fc>
9d002208:	32e40800 	andi	a0,s7,0x800
9d00220c:	3084ffff 	andi	a0,a0,0xffff
9d002210:	50800007 	beqzl	a0,9d002230 <_do_print_cdfFnopuxX+0x430>
9d002214:	8fa3006c 	lw	v1,108(sp)
9d002218:	24020008 	li	v0,8
9d00221c:	12020140 	beq	s0,v0,9d002720 <_do_print_cdfFnopuxX+0x920>
9d002220:	24020010 	li	v0,16
9d002224:	12020165 	beq	s0,v0,9d0027bc <_do_print_cdfFnopuxX+0x9bc>
9d002228:	32e40020 	andi	a0,s7,0x20
9d00222c:	8fa3006c 	lw	v1,108(sp)
9d002230:	10600007 	beqz	v1,9d002250 <_do_print_cdfFnopuxX+0x450>
9d002234:	8fa40074 	lw	a0,116(sp)
9d002238:	148000a3 	bnez	a0,9d0024c8 <_do_print_cdfFnopuxX+0x6c8>
9d00223c:	32e20002 	andi	v0,s7,0x2
9d002240:	10400003 	beqz	v0,9d002250 <_do_print_cdfFnopuxX+0x450>
9d002244:	2402002b 	li	v0,43
9d002248:	a2620000 	sb	v0,0(s3)
9d00224c:	2673ffff 	addiu	s3,s3,-1
9d002250:	26650001 	addiu	a1,s3,1
9d002254:	afb70010 	sw	s7,16(sp)
9d002258:	8fa400a0 	lw	a0,160(sp)
9d00225c:	8fa20060 	lw	v0,96(sp)
9d002260:	00453023 	subu	a2,v0,a1
9d002264:	0f4010ac 	jal	9d0042b0 <_outcnvrt>
9d002268:	02c03821 	move	a3,s6
9d00226c:	8fa30068 	lw	v1,104(sp)
9d002270:	00621821 	addu	v1,v1,v0
9d002274:	0b400796 	j	9d001e58 <_do_print_cdfFnopuxX+0x58>
9d002278:	afa30068 	sw	v1,104(sp)
9d00227c:	36f70010 	ori	s7,s7,0x10
9d002280:	32e8f7ff 	andi	t0,s7,0xf7ff
9d002284:	351700c0 	ori	s7,t0,0xc0
9d002288:	2402ffff 	li	v0,-1
9d00228c:	17c2ff9d 	bne	s8,v0,9d002104 <_do_print_cdfFnopuxX+0x304>
9d002290:	2410000a 	li	s0,10
9d002294:	00002821 	move	a1,zero
9d002298:	241e0001 	li	s8,1
9d00229c:	32e200c0 	andi	v0,s7,0xc0
9d0022a0:	1440ff9d 	bnez	v0,9d002118 <_do_print_cdfFnopuxX+0x318>
9d0022a4:	afa2006c 	sw	v0,108(sp)
9d0022a8:	7c171620 	seh	v0,s7
9d0022ac:	04400123 	bltz	v0,9d00273c <_do_print_cdfFnopuxX+0x93c>
9d0022b0:	8fa300a8 	lw	v1,168(sp)
9d0022b4:	32e20010 	andi	v0,s7,0x10
9d0022b8:	504000a2 	beqzl	v0,9d002544 <_do_print_cdfFnopuxX+0x744>
9d0022bc:	32e20041 	andi	v0,s7,0x41
9d0022c0:	8fa200a8 	lw	v0,168(sp)
9d0022c4:	8c550000 	lw	s5,0(v0)
9d0022c8:	0000a021 	move	s4,zero
9d0022cc:	24420004 	addiu	v0,v0,4
9d0022d0:	afa200a8 	sw	v0,168(sp)
9d0022d4:	0b400852 	j	9d002148 <_do_print_cdfFnopuxX+0x348>
9d0022d8:	afa00074 	sw	zero,116(sp)
9d0022dc:	36f70010 	ori	s7,s7,0x10
9d0022e0:	32f7f7ff 	andi	s7,s7,0xf7ff
9d0022e4:	0b40083e 	j	9d0020f8 <_do_print_cdfFnopuxX+0x2f8>
9d0022e8:	2410000a 	li	s0,10
9d0022ec:	36f70020 	ori	s7,s7,0x20
9d0022f0:	36f70810 	ori	s7,s7,0x810
9d0022f4:	0b40083e 	j	9d0020f8 <_do_print_cdfFnopuxX+0x2f8>
9d0022f8:	24100010 	li	s0,16
9d0022fc:	8fa20070 	lw	v0,112(sp)
9d002300:	02621823 	subu	v1,s3,v0
9d002304:	3084ffff 	andi	a0,a0,0xffff
9d002308:	10800006 	beqz	a0,9d002324 <_do_print_cdfFnopuxX+0x524>
9d00230c:	02c31821 	addu	v1,s6,v1
9d002310:	24020008 	li	v0,8
9d002314:	12020135 	beq	s0,v0,9d0027ec <_do_print_cdfFnopuxX+0x9ec>
9d002318:	2462fffe 	addiu	v0,v1,-2
9d00231c:	3a050010 	xori	a1,s0,0x10
9d002320:	0045180a 	movz	v1,v0,a1
9d002324:	8fa2006c 	lw	v0,108(sp)
9d002328:	10400004 	beqz	v0,9d00233c <_do_print_cdfFnopuxX+0x53c>
9d00232c:	8fa20074 	lw	v0,116(sp)
9d002330:	10400095 	beqz	v0,9d002588 <_do_print_cdfFnopuxX+0x788>
9d002334:	32e20003 	andi	v0,s7,0x3
9d002338:	2463ffff 	addiu	v1,v1,-1
9d00233c:	1860ffb4 	blez	v1,9d002210 <_do_print_cdfFnopuxX+0x410>
9d002340:	02601021 	move	v0,s3
9d002344:	02634823 	subu	t1,s3,v1
9d002348:	24030030 	li	v1,48
9d00234c:	a0430000 	sb	v1,0(v0)
9d002350:	2442ffff 	addiu	v0,v0,-1
9d002354:	5522fffe 	bnel	t1,v0,9d002350 <_do_print_cdfFnopuxX+0x550>
9d002358:	a0430000 	sb	v1,0(v0)
9d00235c:	0b400884 	j	9d002210 <_do_print_cdfFnopuxX+0x410>
9d002360:	01209821 	move	s3,t1
9d002364:	82020001 	lb	v0,1(s0)
9d002368:	2403002a 	li	v1,42
9d00236c:	10430109 	beq	v0,v1,9d002794 <_do_print_cdfFnopuxX+0x994>
9d002370:	2443ffd0 	addiu	v1,v0,-48
9d002374:	2c63000a 	sltiu	v1,v1,10
9d002378:	26100001 	addiu	s0,s0,1
9d00237c:	1060ff0c 	beqz	v1,9d001fb0 <_do_print_cdfFnopuxX+0x1b0>
9d002380:	0000f021 	move	s8,zero
9d002384:	001e1840 	sll	v1,s8,0x1
9d002388:	001e58c0 	sll	t3,s8,0x3
9d00238c:	006b5821 	addu	t3,v1,t3
9d002390:	26100001 	addiu	s0,s0,1
9d002394:	01625821 	addu	t3,t3,v0
9d002398:	82020000 	lb	v0,0(s0)
9d00239c:	2443ffd0 	addiu	v1,v0,-48
9d0023a0:	2c63000a 	sltiu	v1,v1,10
9d0023a4:	1460fff7 	bnez	v1,9d002384 <_do_print_cdfFnopuxX+0x584>
9d0023a8:	257effd0 	addiu	s8,t3,-48
9d0023ac:	24030068 	li	v1,104
9d0023b0:	1443ff03 	bne	v0,v1,9d001fc0 <_do_print_cdfFnopuxX+0x1c0>
9d0023b4:	2403006c 	li	v1,108
9d0023b8:	82030001 	lb	v1,1(s0)
9d0023bc:	506200f1 	beql	v1,v0,9d002784 <_do_print_cdfFnopuxX+0x984>
9d0023c0:	82020002 	lb	v0,2(s0)
9d0023c4:	36f70040 	ori	s7,s7,0x40
9d0023c8:	00601021 	move	v0,v1
9d0023cc:	26100001 	addiu	s0,s0,1
9d0023d0:	32e40002 	andi	a0,s7,0x2
9d0023d4:	32e3fffe 	andi	v1,s7,0xfffe
9d0023d8:	0064b80b 	movn	s7,v1,a0
9d0023dc:	2442ffbc 	addiu	v0,v0,-68
9d0023e0:	32e50008 	andi	a1,s7,0x8
9d0023e4:	32e4fffb 	andi	a0,s7,0xfffb
9d0023e8:	2c430035 	sltiu	v1,v0,53
9d0023ec:	26120001 	addiu	s2,s0,1
9d0023f0:	1460ff03 	bnez	v1,9d002000 <_do_print_cdfFnopuxX+0x200>
9d0023f4:	0085b80b 	movn	s7,a0,a1
9d0023f8:	0b40089b 	j	9d00226c <_do_print_cdfFnopuxX+0x46c>
9d0023fc:	00001021 	move	v0,zero
9d002400:	8fa200a8 	lw	v0,168(sp)
9d002404:	8c560000 	lw	s6,0(v0)
9d002408:	24550004 	addiu	s5,v0,4
9d00240c:	26100001 	addiu	s0,s0,1
9d002410:	06c10003 	bgez	s6,9d002420 <_do_print_cdfFnopuxX+0x620>
9d002414:	80820001 	lb	v0,1(a0)
9d002418:	36f70008 	ori	s7,s7,0x8
9d00241c:	0016b023 	negu	s6,s6
9d002420:	0b4007e9 	j	9d001fa4 <_do_print_cdfFnopuxX+0x1a4>
9d002424:	afb500a8 	sw	s5,168(sp)
9d002428:	82030001 	lb	v1,1(s0)
9d00242c:	506200eb 	beql	v1,v0,9d0027dc <_do_print_cdfFnopuxX+0x9dc>
9d002430:	82020002 	lb	v0,2(s0)
9d002434:	36f70010 	ori	s7,s7,0x10
9d002438:	00601021 	move	v0,v1
9d00243c:	0b4008f4 	j	9d0023d0 <_do_print_cdfFnopuxX+0x5d0>
9d002440:	26100001 	addiu	s0,s0,1
9d002444:	12a00114 	beqz	s5,9d002898 <_do_print_cdfFnopuxX+0xa98>
9d002448:	02a06821 	move	t5,s5
9d00244c:	27a40057 	addiu	a0,sp,87
9d002450:	afa40070 	sw	a0,112(sp)
9d002454:	32e30020 	andi	v1,s7,0x20
9d002458:	24050037 	li	a1,55
9d00245c:	00809821 	move	s3,a0
9d002460:	24020057 	li	v0,87
9d002464:	0043280a 	movz	a1,v0,v1
9d002468:	01b0001b 	divu	zero,t5,s0
9d00246c:	020001f4 	teq	s0,zero,0x7
9d002470:	00001810 	mfhi	v1
9d002474:	2673ffff 	addiu	s3,s3,-1
9d002478:	27deffff 	addiu	s8,s8,-1
9d00247c:	01b0001b 	divu	zero,t5,s0
9d002480:	020001f4 	teq	s0,zero,0x7
9d002484:	00006812 	mflo	t5
9d002488:	2864000a 	slti	a0,v1,10
9d00248c:	24620030 	addiu	v0,v1,48
9d002490:	00651821 	addu	v1,v1,a1
9d002494:	0064100a 	movz	v0,v1,a0
9d002498:	15a0fff3 	bnez	t5,9d002468 <_do_print_cdfFnopuxX+0x668>
9d00249c:	a2620001 	sb	v0,1(s3)
9d0024a0:	0b400875 	j	9d0021d4 <_do_print_cdfFnopuxX+0x3d4>
9d0024a4:	27c5ffff 	addiu	a1,s8,-1
9d0024a8:	24040025 	li	a0,37
9d0024ac:	0f4012e1 	jal	9d004b84 <.LFE0>
9d0024b0:	8fa500a0 	lw	a1,160(sp)
9d0024b4:	26520002 	addiu	s2,s2,2
9d0024b8:	8fa40068 	lw	a0,104(sp)
9d0024bc:	24840001 	addiu	a0,a0,1
9d0024c0:	0b400796 	j	9d001e58 <_do_print_cdfFnopuxX+0x58>
9d0024c4:	afa40068 	sw	a0,104(sp)
9d0024c8:	2402002d 	li	v0,45
9d0024cc:	a2620000 	sb	v0,0(s3)
9d0024d0:	0b400894 	j	9d002250 <_do_print_cdfFnopuxX+0x450>
9d0024d4:	2673ffff 	addiu	s3,s3,-1
9d0024d8:	82020001 	lb	v0,1(s0)
9d0024dc:	36f78000 	ori	s7,s7,0x8000
9d0024e0:	0b4007f6 	j	9d001fd8 <_do_print_cdfFnopuxX+0x1d8>
9d0024e4:	26100001 	addiu	s0,s0,1
9d0024e8:	2402ffff 	li	v0,-1
9d0024ec:	8fbf009c 	lw	ra,156(sp)
9d0024f0:	8fbe0098 	lw	s8,152(sp)
9d0024f4:	8fb70094 	lw	s7,148(sp)
9d0024f8:	8fb60090 	lw	s6,144(sp)
9d0024fc:	8fb5008c 	lw	s5,140(sp)
9d002500:	8fb40088 	lw	s4,136(sp)
9d002504:	8fb30084 	lw	s3,132(sp)
9d002508:	8fb20080 	lw	s2,128(sp)
9d00250c:	8fb1007c 	lw	s1,124(sp)
9d002510:	8fb00078 	lw	s0,120(sp)
9d002514:	03e00008 	jr	ra
9d002518:	27bd00a0 	addiu	sp,sp,160
9d00251c:	10400076 	beqz	v0,9d0026f8 <_do_print_cdfFnopuxX+0x8f8>
9d002520:	8fa400a8 	lw	a0,168(sp)
9d002524:	8fa300a8 	lw	v1,168(sp)
9d002528:	8c750000 	lw	s5,0(v1)
9d00252c:	24630004 	addiu	v1,v1,4
9d002530:	0015a7c3 	sra	s4,s5,0x1f
9d002534:	0681ff03 	bgez	s4,9d002144 <_do_print_cdfFnopuxX+0x344>
9d002538:	afa300a8 	sw	v1,168(sp)
9d00253c:	0b40095b 	j	9d00256c <_do_print_cdfFnopuxX+0x76c>
9d002540:	00156823 	negu	t5,s5
9d002544:	10400066 	beqz	v0,9d0026e0 <_do_print_cdfFnopuxX+0x8e0>
9d002548:	8fa400a8 	lw	a0,168(sp)
9d00254c:	8fa300a8 	lw	v1,168(sp)
9d002550:	8c750000 	lw	s5,0(v1)
9d002554:	0000a021 	move	s4,zero
9d002558:	24630004 	addiu	v1,v1,4
9d00255c:	afa300a8 	sw	v1,168(sp)
9d002560:	0b400852 	j	9d002148 <_do_print_cdfFnopuxX+0x348>
9d002564:	afa00074 	sw	zero,116(sp)
9d002568:	00156823 	negu	t5,s5
9d00256c:	000d102b 	sltu	v0,zero,t5
9d002570:	00146023 	negu	t4,s4
9d002574:	01a0a821 	move	s5,t5
9d002578:	0182a023 	subu	s4,t4,v0
9d00257c:	24020001 	li	v0,1
9d002580:	0b400852 	j	9d002148 <_do_print_cdfFnopuxX+0x348>
9d002584:	afa20074 	sw	v0,116(sp)
9d002588:	5440ff6c 	bnezl	v0,9d00233c <_do_print_cdfFnopuxX+0x53c>
9d00258c:	2463ffff 	addiu	v1,v1,-1
9d002590:	0b4008cf 	j	9d00233c <_do_print_cdfFnopuxX+0x53c>
9d002594:	00000000 	nop
9d002598:	0b40083e 	j	9d0020f8 <_do_print_cdfFnopuxX+0x2f8>
9d00259c:	24100008 	li	s0,8
9d0025a0:	8fa400a8 	lw	a0,168(sp)
9d0025a4:	8c900000 	lw	s0,0(a0)
9d0025a8:	3c039d00 	lui	v1,0x9d00
9d0025ac:	24625104 	addiu	v0,v1,20740
9d0025b0:	0050800a 	movz	s0,v0,s0
9d0025b4:	2402ffff 	li	v0,-1
9d0025b8:	13c200a8 	beq	s8,v0,9d00285c <_do_print_cdfFnopuxX+0xa5c>
9d0025bc:	24950004 	addiu	s5,a0,4
9d0025c0:	1bc000c3 	blez	s8,9d0028d0 <_do_print_cdfFnopuxX+0xad0>
9d0025c4:	021e5821 	addu	t3,s0,s8
9d0025c8:	82030000 	lb	v1,0(s0)
9d0025cc:	14600005 	bnez	v1,9d0025e4 <_do_print_cdfFnopuxX+0x7e4>
9d0025d0:	02001021 	move	v0,s0
9d0025d4:	0b40097d 	j	9d0025f4 <_do_print_cdfFnopuxX+0x7f4>
9d0025d8:	00001021 	move	v0,zero
9d0025dc:	50600005 	beqzl	v1,9d0025f4 <_do_print_cdfFnopuxX+0x7f4>
9d0025e0:	00501023 	subu	v0,v0,s0
9d0025e4:	24420001 	addiu	v0,v0,1
9d0025e8:	544bfffc 	bnel	v0,t3,9d0025dc <_do_print_cdfFnopuxX+0x7dc>
9d0025ec:	80430000 	lb	v1,0(v0)
9d0025f0:	00501023 	subu	v0,v0,s0
9d0025f4:	afb70010 	sw	s7,16(sp)
9d0025f8:	8fa400a0 	lw	a0,160(sp)
9d0025fc:	02002821 	move	a1,s0
9d002600:	00403021 	move	a2,v0
9d002604:	0f4010ac 	jal	9d0042b0 <_outcnvrt>
9d002608:	02c03821 	move	a3,s6
9d00260c:	0b40089b 	j	9d00226c <_do_print_cdfFnopuxX+0x46c>
9d002610:	afb500a8 	sw	s5,168(sp)
9d002614:	7c171620 	seh	v0,s7
9d002618:	04400094 	bltz	v0,9d00286c <_do_print_cdfFnopuxX+0xa6c>
9d00261c:	8fa400a8 	lw	a0,168(sp)
9d002620:	32e20010 	andi	v0,s7,0x10
9d002624:	14400085 	bnez	v0,9d00283c <_do_print_cdfFnopuxX+0xa3c>
9d002628:	8fa200a8 	lw	v0,168(sp)
9d00262c:	32e20040 	andi	v0,s7,0x40
9d002630:	1040009d 	beqz	v0,9d0028a8 <_do_print_cdfFnopuxX+0xaa8>
9d002634:	32e80001 	andi	t0,s7,0x1
9d002638:	8fa200a8 	lw	v0,168(sp)
9d00263c:	8c430000 	lw	v1,0(v0)
9d002640:	00001021 	move	v0,zero
9d002644:	8fa400a8 	lw	a0,168(sp)
9d002648:	24840004 	addiu	a0,a0,4
9d00264c:	afa400a8 	sw	a0,168(sp)
9d002650:	8fa40068 	lw	a0,104(sp)
9d002654:	0b40089b 	j	9d00226c <_do_print_cdfFnopuxX+0x46c>
9d002658:	a4640000 	sh	a0,0(v1)
9d00265c:	32e20080 	andi	v0,s7,0x80
9d002660:	1440006b 	bnez	v0,9d002810 <_do_print_cdfFnopuxX+0xa10>
9d002664:	36f00400 	ori	s0,s7,0x400
9d002668:	8fa400a8 	lw	a0,168(sp)
9d00266c:	8c820000 	lw	v0,0(a0)
9d002670:	24840004 	addiu	a0,a0,4
9d002674:	afa400a8 	sw	a0,168(sp)
9d002678:	afa20058 	sw	v0,88(sp)
9d00267c:	8fa50058 	lw	a1,88(sp)
9d002680:	afbe0010 	sw	s8,16(sp)
9d002684:	afb00014 	sw	s0,20(sp)
9d002688:	8fa400a0 	lw	a0,160(sp)
9d00268c:	24060066 	li	a2,102
9d002690:	0f400a38 	jal	9d0028e0 <_fconvert>
9d002694:	02c03821 	move	a3,s6
9d002698:	0b40089c 	j	9d002270 <_do_print_cdfFnopuxX+0x470>
9d00269c:	8fa30068 	lw	v1,104(sp)
9d0026a0:	8fa300a8 	lw	v1,168(sp)
9d0026a4:	8c620000 	lw	v0,0(v1)
9d0026a8:	24750004 	addiu	s5,v1,4
9d0026ac:	afb70010 	sw	s7,16(sp)
9d0026b0:	8fa400a0 	lw	a0,160(sp)
9d0026b4:	27a50018 	addiu	a1,sp,24
9d0026b8:	24060001 	li	a2,1
9d0026bc:	02c03821 	move	a3,s6
9d0026c0:	a3a20018 	sb	v0,24(sp)
9d0026c4:	0f4010ac 	jal	9d0042b0 <_outcnvrt>
9d0026c8:	afb500a8 	sw	s5,168(sp)
9d0026cc:	0b40089c 	j	9d002270 <_do_print_cdfFnopuxX+0x470>
9d0026d0:	8fa30068 	lw	v1,104(sp)
9d0026d4:	36f70010 	ori	s7,s7,0x10
9d0026d8:	0b40083e 	j	9d0020f8 <_do_print_cdfFnopuxX+0x2f8>
9d0026dc:	24100008 	li	s0,8
9d0026e0:	8c950000 	lw	s5,0(a0)
9d0026e4:	0000a021 	move	s4,zero
9d0026e8:	24840004 	addiu	a0,a0,4
9d0026ec:	afa400a8 	sw	a0,168(sp)
9d0026f0:	0b400852 	j	9d002148 <_do_print_cdfFnopuxX+0x348>
9d0026f4:	afa00074 	sw	zero,116(sp)
9d0026f8:	8c950000 	lw	s5,0(a0)
9d0026fc:	24840004 	addiu	a0,a0,4
9d002700:	0015a7c3 	sra	s4,s5,0x1f
9d002704:	0681fe8f 	bgez	s4,9d002144 <_do_print_cdfFnopuxX+0x344>
9d002708:	afa400a8 	sw	a0,168(sp)
9d00270c:	0b40095b 	j	9d00256c <_do_print_cdfFnopuxX+0x76c>
9d002710:	00156823 	negu	t5,s5
9d002714:	36f70080 	ori	s7,s7,0x80
9d002718:	0b4008f4 	j	9d0023d0 <_do_print_cdfFnopuxX+0x5d0>
9d00271c:	26100001 	addiu	s0,s0,1
9d002720:	82630001 	lb	v1,1(s3)
9d002724:	24020030 	li	v0,48
9d002728:	1062fec1 	beq	v1,v0,9d002230 <_do_print_cdfFnopuxX+0x430>
9d00272c:	8fa3006c 	lw	v1,108(sp)
9d002730:	a2620000 	sb	v0,0(s3)
9d002734:	0b40088b 	j	9d00222c <_do_print_cdfFnopuxX+0x42c>
9d002738:	2673ffff 	addiu	s3,s3,-1
9d00273c:	24620007 	addiu	v0,v1,7
9d002740:	7c021004 	ins	v0,zero,0x0,0x3
9d002744:	24440008 	addiu	a0,v0,8
9d002748:	afa400a8 	sw	a0,168(sp)
9d00274c:	8c550000 	lw	s5,0(v0)
9d002750:	8c540004 	lw	s4,4(v0)
9d002754:	0b400852 	j	9d002148 <_do_print_cdfFnopuxX+0x348>
9d002758:	afa00074 	sw	zero,116(sp)
9d00275c:	8fa300a8 	lw	v1,168(sp)
9d002760:	24620007 	addiu	v0,v1,7
9d002764:	7c021004 	ins	v0,zero,0x0,0x3
9d002768:	24440008 	addiu	a0,v0,8
9d00276c:	afa400a8 	sw	a0,168(sp)
9d002770:	8c540004 	lw	s4,4(v0)
9d002774:	0681fe73 	bgez	s4,9d002144 <_do_print_cdfFnopuxX+0x344>
9d002778:	8c550000 	lw	s5,0(v0)
9d00277c:	0b40095b 	j	9d00256c <_do_print_cdfFnopuxX+0x76c>
9d002780:	00156823 	negu	t5,s5
9d002784:	36f70001 	ori	s7,s7,0x1
9d002788:	26100001 	addiu	s0,s0,1
9d00278c:	0b4008f4 	j	9d0023d0 <_do_print_cdfFnopuxX+0x5d0>
9d002790:	26100001 	addiu	s0,s0,1
9d002794:	8fa300a8 	lw	v1,168(sp)
9d002798:	8c7e0000 	lw	s8,0(v1)
9d00279c:	24750004 	addiu	s5,v1,4
9d0027a0:	26030002 	addiu	v1,s0,2
9d0027a4:	82020002 	lb	v0,2(s0)
9d0027a8:	afb500a8 	sw	s5,168(sp)
9d0027ac:	07c1fe00 	bgez	s8,9d001fb0 <_do_print_cdfFnopuxX+0x1b0>
9d0027b0:	00608021 	move	s0,v1
9d0027b4:	0b4007ec 	j	9d001fb0 <_do_print_cdfFnopuxX+0x1b0>
9d0027b8:	241effff 	li	s8,-1
9d0027bc:	24020058 	li	v0,88
9d0027c0:	24030078 	li	v1,120
9d0027c4:	0064100a 	movz	v0,v1,a0
9d0027c8:	a2620000 	sb	v0,0(s3)
9d0027cc:	24020030 	li	v0,48
9d0027d0:	a262ffff 	sb	v0,-1(s3)
9d0027d4:	0b40088b 	j	9d00222c <_do_print_cdfFnopuxX+0x42c>
9d0027d8:	2673fffe 	addiu	s3,s3,-2
9d0027dc:	36f78000 	ori	s7,s7,0x8000
9d0027e0:	26100001 	addiu	s0,s0,1
9d0027e4:	0b4008f4 	j	9d0023d0 <_do_print_cdfFnopuxX+0x5d0>
9d0027e8:	26100001 	addiu	s0,s0,1
9d0027ec:	82620001 	lb	v0,1(s3)
9d0027f0:	38420030 	xori	v0,v0,0x30
9d0027f4:	0002102b 	sltu	v0,zero,v0
9d0027f8:	0b4008c9 	j	9d002324 <_do_print_cdfFnopuxX+0x524>
9d0027fc:	00621823 	subu	v1,v1,v0
9d002800:	27a30057 	addiu	v1,sp,87
9d002804:	afa30070 	sw	v1,112(sp)
9d002808:	0b400875 	j	9d0021d4 <_do_print_cdfFnopuxX+0x3d4>
9d00280c:	00609821 	move	s3,v1
9d002810:	8fa300a8 	lw	v1,168(sp)
9d002814:	24750007 	addiu	s5,v1,7
9d002818:	7c151004 	ins	s5,zero,0x0,0x3
9d00281c:	8ea40000 	lw	a0,0(s5)
9d002820:	8ea50004 	lw	a1,4(s5)
9d002824:	26b50008 	addiu	s5,s5,8
9d002828:	0f401188 	jal	9d004620 <.LFE10>
9d00282c:	afb500a8 	sw	s5,168(sp)
9d002830:	afa20058 	sw	v0,88(sp)
9d002834:	0b40099f 	j	9d00267c <_do_print_cdfFnopuxX+0x87c>
9d002838:	00000000 	nop
9d00283c:	8c430000 	lw	v1,0(v0)
9d002840:	00001021 	move	v0,zero
9d002844:	8fa400a8 	lw	a0,168(sp)
9d002848:	24840004 	addiu	a0,a0,4
9d00284c:	afa400a8 	sw	a0,168(sp)
9d002850:	8fa40068 	lw	a0,104(sp)
9d002854:	0b40089b 	j	9d00226c <_do_print_cdfFnopuxX+0x46c>
9d002858:	ac640000 	sw	a0,0(v1)
9d00285c:	0f40135a 	jal	9d004d68 <strlen>
9d002860:	02002021 	move	a0,s0
9d002864:	0b40097e 	j	9d0025f8 <_do_print_cdfFnopuxX+0x7f8>
9d002868:	afb70010 	sw	s7,16(sp)
9d00286c:	8c820000 	lw	v0,0(a0)
9d002870:	8fa40068 	lw	a0,104(sp)
9d002874:	00041fc3 	sra	v1,a0,0x1f
9d002878:	8fa400a8 	lw	a0,168(sp)
9d00287c:	24840004 	addiu	a0,a0,4
9d002880:	afa400a8 	sw	a0,168(sp)
9d002884:	8fa40068 	lw	a0,104(sp)
9d002888:	ac440000 	sw	a0,0(v0)
9d00288c:	ac430004 	sw	v1,4(v0)
9d002890:	0b40089b 	j	9d00226c <_do_print_cdfFnopuxX+0x46c>
9d002894:	00001021 	move	v0,zero
9d002898:	27a20057 	addiu	v0,sp,87
9d00289c:	afa20070 	sw	v0,112(sp)
9d0028a0:	0b400875 	j	9d0021d4 <_do_print_cdfFnopuxX+0x3d4>
9d0028a4:	00409821 	move	s3,v0
9d0028a8:	8fa200a8 	lw	v0,168(sp)
9d0028ac:	8c430000 	lw	v1,0(v0)
9d0028b0:	00001021 	move	v0,zero
9d0028b4:	8fa400a8 	lw	a0,168(sp)
9d0028b8:	24840004 	addiu	a0,a0,4
9d0028bc:	afa400a8 	sw	a0,168(sp)
9d0028c0:	11000005 	beqz	t0,9d0028d8 <_do_print_cdfFnopuxX+0xad8>
9d0028c4:	8fa40068 	lw	a0,104(sp)
9d0028c8:	0b40089b 	j	9d00226c <_do_print_cdfFnopuxX+0x46c>
9d0028cc:	a0640000 	sb	a0,0(v1)
9d0028d0:	0b40097d 	j	9d0025f4 <_do_print_cdfFnopuxX+0x7f4>
9d0028d4:	00001021 	move	v0,zero
9d0028d8:	0b40089b 	j	9d00226c <_do_print_cdfFnopuxX+0x46c>
9d0028dc:	ac640000 	sw	a0,0(v1)

Disassembly of section .text._fconvert:

9d0028e0 <_fconvert>:
9d0028e0:	27bdfda8 	addiu	sp,sp,-600
9d0028e4:	afbf0254 	sw	ra,596(sp)
9d0028e8:	afbe0250 	sw	s8,592(sp)
9d0028ec:	afb7024c 	sw	s7,588(sp)
9d0028f0:	afb60248 	sw	s6,584(sp)
9d0028f4:	afb50244 	sw	s5,580(sp)
9d0028f8:	afb40240 	sw	s4,576(sp)
9d0028fc:	afb3023c 	sw	s3,572(sp)
9d002900:	afb20238 	sw	s2,568(sp)
9d002904:	afb10234 	sw	s1,564(sp)
9d002908:	afb00230 	sw	s0,560(sp)
9d00290c:	8fb50268 	lw	s5,616(sp)
9d002910:	afa40258 	sw	a0,600(sp)
9d002914:	00a02021 	move	a0,a1
9d002918:	afa60260 	sw	a2,608(sp)
9d00291c:	00e0b821 	move	s7,a3
9d002920:	97a3026c 	lhu	v1,620(sp)
9d002924:	2402ffff 	li	v0,-1
9d002928:	12a2010c 	beq	s5,v0,9d002d5c <_fconvert+0x47c>
9d00292c:	afa30220 	sw	v1,544(sp)
9d002930:	2aa20028 	slti	v0,s5,40
9d002934:	104000a3 	beqz	v0,9d002bc4 <_fconvert+0x2e4>
9d002938:	afa00224 	sw	zero,548(sp)
9d00293c:	a3a00011 	sb	zero,17(sp)
9d002940:	04810005 	bgez	a0,9d002958 <_fconvert+0x78>
9d002944:	afa00228 	sw	zero,552(sp)
9d002948:	3c028000 	lui	v0,0x8000
9d00294c:	00442026 	xor	a0,v0,a0
9d002950:	2403002d 	li	v1,45
9d002954:	afa30228 	sw	v1,552(sp)
9d002958:	0f401277 	jal	9d0049dc <fpmodf>
9d00295c:	27a5021c 	addiu	a1,sp,540
9d002960:	0040b021 	move	s6,v0
9d002964:	8fbe021c 	lw	s8,540(sp)
9d002968:	00002821 	move	a1,zero
9d00296c:	0f401333 	jal	9d004ccc <__eqsf2>
9d002970:	03c02021 	move	a0,s8
9d002974:	10400119 	beqz	v0,9d002ddc <_fconvert+0x4fc>
9d002978:	3c029d00 	lui	v0,0x9d00
9d00297c:	3c109d00 	lui	s0,0x9d00
9d002980:	8e12514c 	lw	s2,20812(s0)
9d002984:	8c545150 	lw	s4,20816(v0)
9d002988:	00008821 	move	s1,zero
9d00298c:	27b00210 	addiu	s0,sp,528
9d002990:	02409821 	move	s3,s2
9d002994:	03c02021 	move	a0,s8
9d002998:	0f400f40 	jal	9d003d00 <__divsf3>
9d00299c:	02402821 	move	a1,s2
9d0029a0:	00402021 	move	a0,v0
9d0029a4:	0f401277 	jal	9d0049dc <fpmodf>
9d0029a8:	27a5021c 	addiu	a1,sp,540
9d0029ac:	00402021 	move	a0,v0
9d0029b0:	02802821 	move	a1,s4
9d0029b4:	0f400ea4 	jal	9d003a90 <__addsf3>
9d0029b8:	afa20218 	sw	v0,536(sp)
9d0029bc:	00402021 	move	a0,v0
9d0029c0:	0f40103d 	jal	9d0040f4 <.LFE9>
9d0029c4:	02602821 	move	a1,s3
9d0029c8:	0f4013bf 	jal	9d004efc <__fixsfsi>
9d0029cc:	00402021 	move	a0,v0
9d0029d0:	8fbe021c 	lw	s8,540(sp)
9d0029d4:	2610ffff 	addiu	s0,s0,-1
9d0029d8:	24420030 	addiu	v0,v0,48
9d0029dc:	03c02021 	move	a0,s8
9d0029e0:	00002821 	move	a1,zero
9d0029e4:	a2020001 	sb	v0,1(s0)
9d0029e8:	0f401333 	jal	9d004ccc <__eqsf2>
9d0029ec:	26310001 	addiu	s1,s1,1
9d0029f0:	1440ffe9 	bnez	v0,9d002998 <_fconvert+0xb8>
9d0029f4:	03c02021 	move	a0,s8
9d0029f8:	24020066 	li	v0,102
9d0029fc:	8fa30260 	lw	v1,608(sp)
9d002a00:	14620038 	bne	v1,v0,9d002ae4 <_fconvert+0x204>
9d002a04:	00009821 	move	s3,zero
9d002a08:	12200077 	beqz	s1,9d002be8 <_fconvert+0x308>
9d002a0c:	24020030 	li	v0,48
9d002a10:	26020001 	addiu	v0,s0,1
9d002a14:	27a50211 	addiu	a1,sp,529
9d002a18:	0045182b 	sltu	v1,v0,a1
9d002a1c:	106000fd 	beqz	v1,9d002e14 <_fconvert+0x534>
9d002a20:	27b20012 	addiu	s2,sp,18
9d002a24:	02401821 	move	v1,s2
9d002a28:	80440000 	lb	a0,0(v0)
9d002a2c:	24630001 	addiu	v1,v1,1
9d002a30:	24420001 	addiu	v0,v0,1
9d002a34:	1445fffc 	bne	v0,a1,9d002a28 <_fconvert+0x148>
9d002a38:	a064ffff 	sb	a0,-1(v1)
9d002a3c:	03b08023 	subu	s0,sp,s0
9d002a40:	26100210 	addiu	s0,s0,528
9d002a44:	02508021 	addu	s0,s2,s0
9d002a48:	12a0006c 	beqz	s5,9d002bfc <_fconvert+0x31c>
9d002a4c:	8fa30220 	lw	v1,544(sp)
9d002a50:	02c02021 	move	a0,s6
9d002a54:	00002821 	move	a1,zero
9d002a58:	26130001 	addiu	s3,s0,1
9d002a5c:	2402002e 	li	v0,46
9d002a60:	0f401333 	jal	9d004ccc <__eqsf2>
9d002a64:	a2020000 	sb	v0,0(s0)
9d002a68:	104000b4 	beqz	v0,9d002d3c <_fconvert+0x45c>
9d002a6c:	26a3ffff 	addiu	v1,s5,-1
9d002a70:	3c109d00 	lui	s0,0x9d00
9d002a74:	0b400aa3 	j	9d002a8c <_fconvert+0x1ac>
9d002a78:	8e11514c 	lw	s1,20812(s0)
9d002a7c:	0f401333 	jal	9d004ccc <__eqsf2>
9d002a80:	00000000 	nop
9d002a84:	104000ad 	beqz	v0,9d002d3c <_fconvert+0x45c>
9d002a88:	26a3ffff 	addiu	v1,s5,-1
9d002a8c:	02c02021 	move	a0,s6
9d002a90:	0f40103d 	jal	9d0040f4 <.LFE9>
9d002a94:	02202821 	move	a1,s1
9d002a98:	00402021 	move	a0,v0
9d002a9c:	0f401277 	jal	9d0049dc <fpmodf>
9d002aa0:	27a50218 	addiu	a1,sp,536
9d002aa4:	0040b021 	move	s6,v0
9d002aa8:	8fa40218 	lw	a0,536(sp)
9d002aac:	26730001 	addiu	s3,s3,1
9d002ab0:	0f4013bf 	jal	9d004efc <__fixsfsi>
9d002ab4:	26b5ffff 	addiu	s5,s5,-1
9d002ab8:	02c02021 	move	a0,s6
9d002abc:	00002821 	move	a1,zero
9d002ac0:	24420030 	addiu	v0,v0,48
9d002ac4:	16a0ffed 	bnez	s5,9d002a7c <_fconvert+0x19c>
9d002ac8:	a262ffff 	sb	v0,-1(s3)
9d002acc:	02c02021 	move	a0,s6
9d002ad0:	0f401333 	jal	9d004ccc <__eqsf2>
9d002ad4:	00002821 	move	a1,zero
9d002ad8:	54400051 	bnezl	v0,9d002c20 <_fconvert+0x340>
9d002adc:	8e05514c 	lw	a1,20812(s0)
9d002ae0:	02729823 	subu	s3,s3,s2
9d002ae4:	83a40011 	lb	a0,17(sp)
9d002ae8:	27a20011 	addiu	v0,sp,17
9d002aec:	27a30012 	addiu	v1,sp,18
9d002af0:	0064100a 	movz	v0,v1,a0
9d002af4:	8fa30228 	lw	v1,552(sp)
9d002af8:	1060002a 	beqz	v1,9d002ba4 <_fconvert+0x2c4>
9d002afc:	8fa40220 	lw	a0,544(sp)
9d002b00:	2452ffff 	addiu	s2,v0,-1
9d002b04:	a043ffff 	sb	v1,-1(v0)
9d002b08:	26730001 	addiu	s3,s3,1
9d002b0c:	8fa30220 	lw	v1,544(sp)
9d002b10:	30710008 	andi	s1,v1,0x8
9d002b14:	3231ffff 	andi	s1,s1,0xffff
9d002b18:	8fa30224 	lw	v1,548(sp)
9d002b1c:	16200004 	bnez	s1,9d002b30 <_fconvert+0x250>
9d002b20:	02638021 	addu	s0,s3,v1
9d002b24:	0217102a 	slt	v0,s0,s7
9d002b28:	1440005a 	bnez	v0,9d002c94 <_fconvert+0x3b4>
9d002b2c:	8fa30220 	lw	v1,544(sp)
9d002b30:	02402021 	move	a0,s2
9d002b34:	02602821 	move	a1,s3
9d002b38:	0f4013fa 	jal	9d004fe8 <__sputn>
9d002b3c:	8fa60258 	lw	a2,600(sp)
9d002b40:	2412ffff 	li	s2,-1
9d002b44:	10520008 	beq	v0,s2,9d002b68 <_fconvert+0x288>
9d002b48:	8fa30224 	lw	v1,548(sp)
9d002b4c:	14600071 	bnez	v1,9d002d14 <_fconvert+0x434>
9d002b50:	8fa40258 	lw	a0,600(sp)
9d002b54:	12200005 	beqz	s1,9d002b6c <_fconvert+0x28c>
9d002b58:	0217102a 	slt	v0,s0,s7
9d002b5c:	0217102a 	slt	v0,s0,s7
9d002b60:	14400081 	bnez	v0,9d002d68 <_fconvert+0x488>
9d002b64:	8fa40258 	lw	a0,600(sp)
9d002b68:	0217102a 	slt	v0,s0,s7
9d002b6c:	0202b80a 	movz	s7,s0,v0
9d002b70:	02e01021 	move	v0,s7
9d002b74:	8fbf0254 	lw	ra,596(sp)
9d002b78:	8fbe0250 	lw	s8,592(sp)
9d002b7c:	8fb7024c 	lw	s7,588(sp)
9d002b80:	8fb60248 	lw	s6,584(sp)
9d002b84:	8fb50244 	lw	s5,580(sp)
9d002b88:	8fb40240 	lw	s4,576(sp)
9d002b8c:	8fb3023c 	lw	s3,572(sp)
9d002b90:	8fb20238 	lw	s2,568(sp)
9d002b94:	8fb10234 	lw	s1,564(sp)
9d002b98:	8fb00230 	lw	s0,560(sp)
9d002b9c:	03e00008 	jr	ra
9d002ba0:	27bd0258 	addiu	sp,sp,600
9d002ba4:	30830002 	andi	v1,a0,0x2
9d002ba8:	10600052 	beqz	v1,9d002cf4 <_fconvert+0x414>
9d002bac:	8fa40220 	lw	a0,544(sp)
9d002bb0:	2452ffff 	addiu	s2,v0,-1
9d002bb4:	2403002b 	li	v1,43
9d002bb8:	a043ffff 	sb	v1,-1(v0)
9d002bbc:	0b400ac3 	j	9d002b0c <_fconvert+0x22c>
9d002bc0:	26730001 	addiu	s3,s3,1
9d002bc4:	00c01821 	move	v1,a2
9d002bc8:	7c032944 	ins	v1,zero,0x5,0x1
9d002bcc:	24020047 	li	v0,71
9d002bd0:	1062007d 	beq	v1,v0,9d002dc8 <_fconvert+0x4e8>
9d002bd4:	8fa30220 	lw	v1,544(sp)
9d002bd8:	26b5ffd9 	addiu	s5,s5,-39
9d002bdc:	afb50224 	sw	s5,548(sp)
9d002be0:	0b400a4f 	j	9d00293c <_fconvert+0x5c>
9d002be4:	24150027 	li	s5,39
9d002be8:	a3a20012 	sb	v0,18(sp)
9d002bec:	27b00013 	addiu	s0,sp,19
9d002bf0:	16a0ff97 	bnez	s5,9d002a50 <_fconvert+0x170>
9d002bf4:	27b20012 	addiu	s2,sp,18
9d002bf8:	8fa30220 	lw	v1,544(sp)
9d002bfc:	30620800 	andi	v0,v1,0x800
9d002c00:	14400079 	bnez	v0,9d002de8 <_fconvert+0x508>
9d002c04:	02c02021 	move	a0,s6
9d002c08:	0f401333 	jal	9d004ccc <__eqsf2>
9d002c0c:	00002821 	move	a1,zero
9d002c10:	1040ffb3 	beqz	v0,9d002ae0 <_fconvert+0x200>
9d002c14:	02009821 	move	s3,s0
9d002c18:	3c109d00 	lui	s0,0x9d00
9d002c1c:	8e05514c 	lw	a1,20812(s0)
9d002c20:	02c02021 	move	a0,s6
9d002c24:	0f40103d 	jal	9d0040f4 <.LFE9>
9d002c28:	2670ffff 	addiu	s0,s3,-1
9d002c2c:	00402021 	move	a0,v0
9d002c30:	0f401277 	jal	9d0049dc <fpmodf>
9d002c34:	27a50214 	addiu	a1,sp,532
9d002c38:	3c029d00 	lui	v0,0x9d00
9d002c3c:	8c445154 	lw	a0,20820(v0)
9d002c40:	0f401333 	jal	9d004ccc <__eqsf2>
9d002c44:	8fa50214 	lw	a1,532(sp)
9d002c48:	2404002e 	li	a0,46
9d002c4c:	0440000b 	bltz	v0,9d002c7c <_fconvert+0x39c>
9d002c50:	24050030 	li	a1,48
9d002c54:	0b400ab9 	j	9d002ae4 <_fconvert+0x204>
9d002c58:	02729823 	subu	s3,s3,s2
9d002c5c:	24420001 	addiu	v0,v0,1
9d002c60:	7c021420 	seb	v0,v0
9d002c64:	2843003a 	slti	v1,v0,58
9d002c68:	54600068 	bnezl	v1,9d002e0c <_fconvert+0x52c>
9d002c6c:	a2020000 	sb	v0,0(s0)
9d002c70:	1212006a 	beq	s0,s2,9d002e1c <_fconvert+0x53c>
9d002c74:	a2050000 	sb	a1,0(s0)
9d002c78:	2610ffff 	addiu	s0,s0,-1
9d002c7c:	82020000 	lb	v0,0(s0)
9d002c80:	5444fff7 	bnel	v0,a0,9d002c60 <_fconvert+0x380>
9d002c84:	24420001 	addiu	v0,v0,1
9d002c88:	8202ffff 	lb	v0,-1(s0)
9d002c8c:	0b400b17 	j	9d002c5c <_fconvert+0x37c>
9d002c90:	2610ffff 	addiu	s0,s0,-1
9d002c94:	30620004 	andi	v0,v1,0x4
9d002c98:	8fa40258 	lw	a0,600(sp)
9d002c9c:	14400045 	bnez	v0,9d002db4 <_fconvert+0x4d4>
9d002ca0:	02f02823 	subu	a1,s7,s0
9d002ca4:	3c069d00 	lui	a2,0x9d00
9d002ca8:	0f40130c 	jal	9d004c30 <repl>
9d002cac:	24c6512c 	addiu	a2,a2,20780
9d002cb0:	2403ffff 	li	v1,-1
9d002cb4:	1443ff9e 	bne	v0,v1,9d002b30 <_fconvert+0x250>
9d002cb8:	0217102a 	slt	v0,s0,s7
9d002cbc:	0202b80a 	movz	s7,s0,v0
9d002cc0:	02e01021 	move	v0,s7
9d002cc4:	8fbf0254 	lw	ra,596(sp)
9d002cc8:	8fbe0250 	lw	s8,592(sp)
9d002ccc:	8fb7024c 	lw	s7,588(sp)
9d002cd0:	8fb60248 	lw	s6,584(sp)
9d002cd4:	8fb50244 	lw	s5,580(sp)
9d002cd8:	8fb40240 	lw	s4,576(sp)
9d002cdc:	8fb3023c 	lw	s3,572(sp)
9d002ce0:	8fb20238 	lw	s2,568(sp)
9d002ce4:	8fb10234 	lw	s1,564(sp)
9d002ce8:	8fb00230 	lw	s0,560(sp)
9d002cec:	03e00008 	jr	ra
9d002cf0:	27bd0258 	addiu	sp,sp,600
9d002cf4:	30830001 	andi	v1,a0,0x1
9d002cf8:	1060ff84 	beqz	v1,9d002b0c <_fconvert+0x22c>
9d002cfc:	00409021 	move	s2,v0
9d002d00:	2452ffff 	addiu	s2,v0,-1
9d002d04:	24030020 	li	v1,32
9d002d08:	a043ffff 	sb	v1,-1(v0)
9d002d0c:	0b400ac3 	j	9d002b0c <_fconvert+0x22c>
9d002d10:	26730001 	addiu	s3,s3,1
9d002d14:	8fa50224 	lw	a1,548(sp)
9d002d18:	3c069d00 	lui	a2,0x9d00
9d002d1c:	0f40130c 	jal	9d004c30 <repl>
9d002d20:	24c6510c 	addiu	a2,a2,20748
9d002d24:	1052ff91 	beq	v0,s2,9d002b6c <_fconvert+0x28c>
9d002d28:	0217102a 	slt	v0,s0,s7
9d002d2c:	5620ff8c 	bnezl	s1,9d002b60 <_fconvert+0x280>
9d002d30:	0217102a 	slt	v0,s0,s7
9d002d34:	0b400adc 	j	9d002b70 <_fconvert+0x290>
9d002d38:	0202b80a 	movz	s7,s0,v0
9d002d3c:	24630001 	addiu	v1,v1,1
9d002d40:	02631821 	addu	v1,s3,v1
9d002d44:	24020030 	li	v0,48
9d002d48:	26730001 	addiu	s3,s3,1
9d002d4c:	1663fffe 	bne	s3,v1,9d002d48 <_fconvert+0x468>
9d002d50:	a262ffff 	sb	v0,-1(s3)
9d002d54:	0b400ab9 	j	9d002ae4 <_fconvert+0x204>
9d002d58:	02729823 	subu	s3,s3,s2
9d002d5c:	afa00224 	sw	zero,548(sp)
9d002d60:	0b400a4f 	j	9d00293c <_fconvert+0x5c>
9d002d64:	24150006 	li	s5,6
9d002d68:	02f02823 	subu	a1,s7,s0
9d002d6c:	3c069d00 	lui	a2,0x9d00
9d002d70:	0f40130c 	jal	9d004c30 <repl>
9d002d74:	24c6512c 	addiu	a2,a2,20780
9d002d78:	0217102a 	slt	v0,s0,s7
9d002d7c:	0202b80a 	movz	s7,s0,v0
9d002d80:	02e01021 	move	v0,s7
9d002d84:	8fbf0254 	lw	ra,596(sp)
9d002d88:	8fbe0250 	lw	s8,592(sp)
9d002d8c:	8fb7024c 	lw	s7,588(sp)
9d002d90:	8fb60248 	lw	s6,584(sp)
9d002d94:	8fb50244 	lw	s5,580(sp)
9d002d98:	8fb40240 	lw	s4,576(sp)
9d002d9c:	8fb3023c 	lw	s3,572(sp)
9d002da0:	8fb20238 	lw	s2,568(sp)
9d002da4:	8fb10234 	lw	s1,564(sp)
9d002da8:	8fb00230 	lw	s0,560(sp)
9d002dac:	03e00008 	jr	ra
9d002db0:	27bd0258 	addiu	sp,sp,600
9d002db4:	3c069d00 	lui	a2,0x9d00
9d002db8:	0f40130c 	jal	9d004c30 <repl>
9d002dbc:	24c6510c 	addiu	a2,a2,20748
9d002dc0:	0b400b2d 	j	9d002cb4 <_fconvert+0x3d4>
9d002dc4:	2403ffff 	li	v1,-1
9d002dc8:	30620800 	andi	v0,v1,0x800
9d002dcc:	5440ff83 	bnezl	v0,9d002bdc <_fconvert+0x2fc>
9d002dd0:	26b5ffd9 	addiu	s5,s5,-39
9d002dd4:	0b400a4f 	j	9d00293c <_fconvert+0x5c>
9d002dd8:	24150027 	li	s5,39
9d002ddc:	00008821 	move	s1,zero
9d002de0:	0b400a7e 	j	9d0029f8 <_fconvert+0x118>
9d002de4:	27b00210 	addiu	s0,sp,528
9d002de8:	00002821 	move	a1,zero
9d002dec:	26130001 	addiu	s3,s0,1
9d002df0:	2402002e 	li	v0,46
9d002df4:	0f401333 	jal	9d004ccc <__eqsf2>
9d002df8:	a2020000 	sb	v0,0(s0)
9d002dfc:	5440ff87 	bnezl	v0,9d002c1c <_fconvert+0x33c>
9d002e00:	3c109d00 	lui	s0,0x9d00
9d002e04:	0b400ab9 	j	9d002ae4 <_fconvert+0x204>
9d002e08:	02729823 	subu	s3,s3,s2
9d002e0c:	0b400ab9 	j	9d002ae4 <_fconvert+0x204>
9d002e10:	02729823 	subu	s3,s3,s2
9d002e14:	0b400a92 	j	9d002a48 <_fconvert+0x168>
9d002e18:	02408021 	move	s0,s2
9d002e1c:	24020031 	li	v0,49
9d002e20:	a3a20011 	sb	v0,17(sp)
9d002e24:	27b20011 	addiu	s2,sp,17
9d002e28:	0b400ab9 	j	9d002ae4 <_fconvert+0x204>
9d002e2c:	02729823 	subu	s3,s3,s2

Disassembly of section .text:

9d002e30 <__umoddi3>:
9d002e30:	00c04021 	move	t0,a2
9d002e34:	00804821 	move	t1,a0
9d002e38:	14e0003b 	bnez	a3,9d002f28 <__umoddi3+0xf8>
9d002e3c:	00a01821 	move	v1,a1
9d002e40:	00a6102b 	sltu	v0,a1,a2
9d002e44:	10400048 	beqz	v0,9d002f68 <__umoddi3+0x138>
9d002e48:	70c21020 	clz	v0,a2
9d002e4c:	50400008 	beqzl	v0,9d002e70 <__umoddi3+0x40>
9d002e50:	00083402 	srl	a2,t0,0x10
9d002e54:	00021823 	negu	v1,v0
9d002e58:	00452804 	sllv	a1,a1,v0
9d002e5c:	00641806 	srlv	v1,a0,v1
9d002e60:	00464004 	sllv	t0,a2,v0
9d002e64:	00651825 	or	v1,v1,a1
9d002e68:	00444804 	sllv	t1,a0,v0
9d002e6c:	00083402 	srl	a2,t0,0x10
9d002e70:	0066001b 	divu	zero,v1,a2
9d002e74:	00c001f4 	teq	a2,zero,0x7
9d002e78:	00002010 	mfhi	a0
9d002e7c:	00005812 	mflo	t3
9d002e80:	310cffff 	andi	t4,t0,0xffff
9d002e84:	00095402 	srl	t2,t1,0x10
9d002e88:	716c5802 	mul	t3,t3,t4
9d002e8c:	00042400 	sll	a0,a0,0x10
9d002e90:	008a5025 	or	t2,a0,t2
9d002e94:	014b682b 	sltu	t5,t2,t3
9d002e98:	0066001b 	divu	zero,v1,a2
9d002e9c:	00c001f4 	teq	a2,zero,0x7
9d002ea0:	51a00009 	beqzl	t5,9d002ec8 <__umoddi3+0x98>
9d002ea4:	014b5023 	subu	t2,t2,t3
9d002ea8:	01485021 	addu	t2,t2,t0
9d002eac:	0148182b 	sltu	v1,t2,t0
9d002eb0:	54600005 	bnezl	v1,9d002ec8 <__umoddi3+0x98>
9d002eb4:	014b5023 	subu	t2,t2,t3
9d002eb8:	014b202b 	sltu	a0,t2,t3
9d002ebc:	01481821 	addu	v1,t2,t0
9d002ec0:	0064500b 	movn	t2,v1,a0
9d002ec4:	014b5023 	subu	t2,t2,t3
9d002ec8:	3123ffff 	andi	v1,t1,0xffff
9d002ecc:	0146001b 	divu	zero,t2,a2
9d002ed0:	00c001f4 	teq	a2,zero,0x7
9d002ed4:	00004810 	mfhi	t1
9d002ed8:	00002012 	mflo	a0
9d002edc:	708c2002 	mul	a0,a0,t4
9d002ee0:	00094c00 	sll	t1,t1,0x10
9d002ee4:	01234825 	or	t1,t1,v1
9d002ee8:	0124182b 	sltu	v1,t1,a0
9d002eec:	0146001b 	divu	zero,t2,a2
9d002ef0:	00c001f4 	teq	a2,zero,0x7
9d002ef4:	50600009 	beqzl	v1,9d002f1c <__umoddi3+0xec>
9d002ef8:	01244823 	subu	t1,t1,a0
9d002efc:	01284821 	addu	t1,t1,t0
9d002f00:	0128182b 	sltu	v1,t1,t0
9d002f04:	54600005 	bnezl	v1,9d002f1c <__umoddi3+0xec>
9d002f08:	01244823 	subu	t1,t1,a0
9d002f0c:	0124182b 	sltu	v1,t1,a0
9d002f10:	01284021 	addu	t0,t1,t0
9d002f14:	0103480b 	movn	t1,t0,v1
9d002f18:	01244823 	subu	t1,t1,a0
9d002f1c:	00491006 	srlv	v0,t1,v0
9d002f20:	03e00008 	jr	ra
9d002f24:	00001821 	move	v1,zero
9d002f28:	00a7102b 	sltu	v0,a1,a3
9d002f2c:	14400047 	bnez	v0,9d00304c <__umoddi3+0x21c>
9d002f30:	70ea5020 	clz	t2,a3
9d002f34:	15400048 	bnez	t2,9d003058 <__umoddi3+0x228>
9d002f38:	240b0020 	li	t3,32
9d002f3c:	00e5102b 	sltu	v0,a3,a1
9d002f40:	14400005 	bnez	v0,9d002f58 <__umoddi3+0x128>
9d002f44:	00861023 	subu	v0,a0,a2
9d002f48:	0086402b 	sltu	t0,a0,a2
9d002f4c:	15000089 	bnez	t0,9d003174 <__umoddi3+0x344>
9d002f50:	00801021 	move	v0,a0
9d002f54:	00861023 	subu	v0,a0,a2
9d002f58:	00a72823 	subu	a1,a1,a3
9d002f5c:	0082202b 	sltu	a0,a0,v0
9d002f60:	03e00008 	jr	ra
9d002f64:	00a41823 	subu	v1,a1,a0
9d002f68:	14c00006 	bnez	a2,9d002f84 <__umoddi3+0x154>
9d002f6c:	71021020 	clz	v0,t0
9d002f70:	24020001 	li	v0,1
9d002f74:	0046001b 	divu	zero,v0,a2
9d002f78:	00c001f4 	teq	a2,zero,0x7
9d002f7c:	00004012 	mflo	t0
9d002f80:	71021020 	clz	v0,t0
9d002f84:	5440007d 	bnezl	v0,9d00317c <__umoddi3+0x34c>
9d002f88:	00484004 	sllv	t0,t0,v0
9d002f8c:	00a82823 	subu	a1,a1,t0
9d002f90:	00081c02 	srl	v1,t0,0x10
9d002f94:	3107ffff 	andi	a3,t0,0xffff
9d002f98:	00092402 	srl	a0,t1,0x10
9d002f9c:	00a3001b 	divu	zero,a1,v1
9d002fa0:	006001f4 	teq	v1,zero,0x7
9d002fa4:	00005010 	mfhi	t2
9d002fa8:	00003012 	mflo	a2
9d002fac:	70c73002 	mul	a2,a2,a3
9d002fb0:	000a5400 	sll	t2,t2,0x10
9d002fb4:	01442025 	or	a0,t2,a0
9d002fb8:	0086502b 	sltu	t2,a0,a2
9d002fbc:	00a3001b 	divu	zero,a1,v1
9d002fc0:	006001f4 	teq	v1,zero,0x7
9d002fc4:	51400009 	beqzl	t2,9d002fec <__umoddi3+0x1bc>
9d002fc8:	00862023 	subu	a0,a0,a2
9d002fcc:	00882021 	addu	a0,a0,t0
9d002fd0:	0088282b 	sltu	a1,a0,t0
9d002fd4:	54a00005 	bnezl	a1,9d002fec <__umoddi3+0x1bc>
9d002fd8:	00862023 	subu	a0,a0,a2
9d002fdc:	0086502b 	sltu	t2,a0,a2
9d002fe0:	00882821 	addu	a1,a0,t0
9d002fe4:	00aa200b 	movn	a0,a1,t2
9d002fe8:	00862023 	subu	a0,a0,a2
9d002fec:	3126ffff 	andi	a2,t1,0xffff
9d002ff0:	0083001b 	divu	zero,a0,v1
9d002ff4:	006001f4 	teq	v1,zero,0x7
9d002ff8:	00004810 	mfhi	t1
9d002ffc:	00002812 	mflo	a1
9d003000:	70a72802 	mul	a1,a1,a3
9d003004:	00094c00 	sll	t1,t1,0x10
9d003008:	01264825 	or	t1,t1,a2
9d00300c:	0125302b 	sltu	a2,t1,a1
9d003010:	0083001b 	divu	zero,a0,v1
9d003014:	006001f4 	teq	v1,zero,0x7
9d003018:	50c00009 	beqzl	a2,9d003040 <__umoddi3+0x210>
9d00301c:	01254823 	subu	t1,t1,a1
9d003020:	01284821 	addu	t1,t1,t0
9d003024:	0128182b 	sltu	v1,t1,t0
9d003028:	54600005 	bnezl	v1,9d003040 <__umoddi3+0x210>
9d00302c:	01254823 	subu	t1,t1,a1
9d003030:	0125182b 	sltu	v1,t1,a1
9d003034:	01284021 	addu	t0,t1,t0
9d003038:	0103480b 	movn	t1,t0,v1
9d00303c:	01254823 	subu	t1,t1,a1
9d003040:	00491006 	srlv	v0,t1,v0
9d003044:	03e00008 	jr	ra
9d003048:	00001821 	move	v1,zero
9d00304c:	00801021 	move	v0,a0
9d003050:	03e00008 	jr	ra
9d003054:	00a01821 	move	v1,a1
9d003058:	016a5823 	subu	t3,t3,t2
9d00305c:	01473804 	sllv	a3,a3,t2
9d003060:	01661006 	srlv	v0,a2,t3
9d003064:	00473825 	or	a3,v0,a3
9d003068:	01656806 	srlv	t5,a1,t3
9d00306c:	00074c02 	srl	t1,a3,0x10
9d003070:	01a9001b 	divu	zero,t5,t1
9d003074:	012001f4 	teq	t1,zero,0x7
9d003078:	00006010 	mfhi	t4
9d00307c:	00001812 	mflo	v1
9d003080:	30eeffff 	andi	t6,a3,0xffff
9d003084:	01452804 	sllv	a1,a1,t2
9d003088:	01641006 	srlv	v0,a0,t3
9d00308c:	00451025 	or	v0,v0,a1
9d003090:	00022c02 	srl	a1,v0,0x10
9d003094:	01463004 	sllv	a2,a2,t2
9d003098:	00004012 	mflo	t0
9d00309c:	706e7802 	mul	t7,v1,t6
9d0030a0:	000c6400 	sll	t4,t4,0x10
9d0030a4:	01856025 	or	t4,t4,a1
9d0030a8:	018f282b 	sltu	a1,t4,t7
9d0030ac:	01a9001b 	divu	zero,t5,t1
9d0030b0:	012001f4 	teq	t1,zero,0x7
9d0030b4:	10a0000a 	beqz	a1,9d0030e0 <__umoddi3+0x2b0>
9d0030b8:	01442004 	sllv	a0,a0,t2
9d0030bc:	01876021 	addu	t4,t4,a3
9d0030c0:	0187282b 	sltu	a1,t4,a3
9d0030c4:	14a00006 	bnez	a1,9d0030e0 <__umoddi3+0x2b0>
9d0030c8:	2468ffff 	addiu	t0,v1,-1
9d0030cc:	018f282b 	sltu	a1,t4,t7
9d0030d0:	50a00004 	beqzl	a1,9d0030e4 <__umoddi3+0x2b4>
9d0030d4:	018f6023 	subu	t4,t4,t7
9d0030d8:	2468fffe 	addiu	t0,v1,-2
9d0030dc:	01876021 	addu	t4,t4,a3
9d0030e0:	018f6023 	subu	t4,t4,t7
9d0030e4:	3042ffff 	andi	v0,v0,0xffff
9d0030e8:	0189001b 	divu	zero,t4,t1
9d0030ec:	012001f4 	teq	t1,zero,0x7
9d0030f0:	00002810 	mfhi	a1
9d0030f4:	00001812 	mflo	v1
9d0030f8:	00006812 	mflo	t5
9d0030fc:	706e7002 	mul	t6,v1,t6
9d003100:	00052c00 	sll	a1,a1,0x10
9d003104:	00a21025 	or	v0,a1,v0
9d003108:	004e282b 	sltu	a1,v0,t6
9d00310c:	0189001b 	divu	zero,t4,t1
9d003110:	012001f4 	teq	t1,zero,0x7
9d003114:	50a00006 	beqzl	a1,9d003130 <__umoddi3+0x300>
9d003118:	00084400 	sll	t0,t0,0x10
9d00311c:	00471021 	addu	v0,v0,a3
9d003120:	0047282b 	sltu	a1,v0,a3
9d003124:	10a0004c 	beqz	a1,9d003258 <__umoddi3+0x428>
9d003128:	246dffff 	addiu	t5,v1,-1
9d00312c:	00084400 	sll	t0,t0,0x10
9d003130:	01a84025 	or	t0,t5,t0
9d003134:	004e1023 	subu	v0,v0,t6
9d003138:	01060019 	multu	t0,a2
9d00313c:	00004810 	mfhi	t1
9d003140:	0049182b 	sltu	v1,v0,t1
9d003144:	1460003e 	bnez	v1,9d003240 <__umoddi3+0x410>
9d003148:	00004012 	mflo	t0
9d00314c:	1049004b 	beq	v0,t1,9d00327c <__umoddi3+0x44c>
9d003150:	00491823 	subu	v1,v0,t1
9d003154:	00003012 	mflo	a2
9d003158:	00863023 	subu	a2,a0,a2
9d00315c:	0086202b 	sltu	a0,a0,a2
9d003160:	00641823 	subu	v1,v1,a0
9d003164:	01631004 	sllv	v0,v1,t3
9d003168:	01463006 	srlv	a2,a2,t2
9d00316c:	00461025 	or	v0,v0,a2
9d003170:	01431806 	srlv	v1,v1,t2
9d003174:	03e00008 	jr	ra
9d003178:	00000000 	nop
9d00317c:	24090020 	li	t1,32
9d003180:	01224823 	subu	t1,t1,v0
9d003184:	01255006 	srlv	t2,a1,t1
9d003188:	00081c02 	srl	v1,t0,0x10
9d00318c:	0143001b 	divu	zero,t2,v1
9d003190:	006001f4 	teq	v1,zero,0x7
9d003194:	00003010 	mfhi	a2
9d003198:	00005812 	mflo	t3
9d00319c:	3107ffff 	andi	a3,t0,0xffff
9d0031a0:	00452804 	sllv	a1,a1,v0
9d0031a4:	01244806 	srlv	t1,a0,t1
9d0031a8:	01252825 	or	a1,t1,a1
9d0031ac:	00056402 	srl	t4,a1,0x10
9d0031b0:	00444804 	sllv	t1,a0,v0
9d0031b4:	71675802 	mul	t3,t3,a3
9d0031b8:	00063400 	sll	a2,a2,0x10
9d0031bc:	01863025 	or	a2,t4,a2
9d0031c0:	00cb202b 	sltu	a0,a2,t3
9d0031c4:	0143001b 	divu	zero,t2,v1
9d0031c8:	006001f4 	teq	v1,zero,0x7
9d0031cc:	50800006 	beqzl	a0,9d0031e8 <__umoddi3+0x3b8>
9d0031d0:	00cb3023 	subu	a2,a2,t3
9d0031d4:	00c83021 	addu	a2,a2,t0
9d0031d8:	00c8202b 	sltu	a0,a2,t0
9d0031dc:	10800024 	beqz	a0,9d003270 <__umoddi3+0x440>
9d0031e0:	00cb502b 	sltu	t2,a2,t3
9d0031e4:	00cb3023 	subu	a2,a2,t3
9d0031e8:	30aaffff 	andi	t2,a1,0xffff
9d0031ec:	00c3001b 	divu	zero,a2,v1
9d0031f0:	006001f4 	teq	v1,zero,0x7
9d0031f4:	00002010 	mfhi	a0
9d0031f8:	00002812 	mflo	a1
9d0031fc:	70a72802 	mul	a1,a1,a3
9d003200:	00042400 	sll	a0,a0,0x10
9d003204:	008a2025 	or	a0,a0,t2
9d003208:	0085502b 	sltu	t2,a0,a1
9d00320c:	00c3001b 	divu	zero,a2,v1
9d003210:	006001f4 	teq	v1,zero,0x7
9d003214:	5140ff60 	beqzl	t2,9d002f98 <__umoddi3+0x168>
9d003218:	00852823 	subu	a1,a0,a1
9d00321c:	00882021 	addu	a0,a0,t0
9d003220:	0088302b 	sltu	a2,a0,t0
9d003224:	54c0ff5c 	bnezl	a2,9d002f98 <__umoddi3+0x168>
9d003228:	00852823 	subu	a1,a0,a1
9d00322c:	0085502b 	sltu	t2,a0,a1
9d003230:	00883021 	addu	a2,a0,t0
9d003234:	00ca200b 	movn	a0,a2,t2
9d003238:	0b400be6 	j	9d002f98 <__umoddi3+0x168>
9d00323c:	00852823 	subu	a1,a0,a1
9d003240:	01063023 	subu	a2,t0,a2
9d003244:	01271823 	subu	v1,t1,a3
9d003248:	0106402b 	sltu	t0,t0,a2
9d00324c:	00681823 	subu	v1,v1,t0
9d003250:	0b400c56 	j	9d003158 <__umoddi3+0x328>
9d003254:	00431823 	subu	v1,v0,v1
9d003258:	004e282b 	sltu	a1,v0,t6
9d00325c:	50a0ffb4 	beqzl	a1,9d003130 <__umoddi3+0x300>
9d003260:	00084400 	sll	t0,t0,0x10
9d003264:	246dfffe 	addiu	t5,v1,-2
9d003268:	0b400c4b 	j	9d00312c <__umoddi3+0x2fc>
9d00326c:	00471021 	addu	v0,v0,a3
9d003270:	00c82021 	addu	a0,a2,t0
9d003274:	0b400c79 	j	9d0031e4 <__umoddi3+0x3b4>
9d003278:	008a300b 	movn	a2,a0,t2
9d00327c:	0088182b 	sltu	v1,a0,t0
9d003280:	5460fff0 	bnezl	v1,9d003244 <__umoddi3+0x414>
9d003284:	01063023 	subu	a2,t0,a2
9d003288:	00003012 	mflo	a2
9d00328c:	0b400c56 	j	9d003158 <__umoddi3+0x328>
9d003290:	00001821 	move	v1,zero

9d003294 <__udivdi3>:
9d003294:	00c04021 	move	t0,a2
9d003298:	00801021 	move	v0,a0
9d00329c:	14e0003f 	bnez	a3,9d00339c <__udivdi3+0x108>
9d0032a0:	00a04821 	move	t1,a1
9d0032a4:	00a6182b 	sltu	v1,a1,a2
9d0032a8:	10600047 	beqz	v1,9d0033c8 <__udivdi3+0x134>
9d0032ac:	70c31820 	clz	v1,a2
9d0032b0:	50600008 	beqzl	v1,9d0032d4 <__udivdi3+0x40>
9d0032b4:	00081c02 	srl	v1,t0,0x10
9d0032b8:	00034823 	negu	t1,v1
9d0032bc:	00652804 	sllv	a1,a1,v1
9d0032c0:	01244806 	srlv	t1,a0,t1
9d0032c4:	00664004 	sllv	t0,a2,v1
9d0032c8:	01254825 	or	t1,t1,a1
9d0032cc:	00641004 	sllv	v0,a0,v1
9d0032d0:	00081c02 	srl	v1,t0,0x10
9d0032d4:	0123001b 	divu	zero,t1,v1
9d0032d8:	006001f4 	teq	v1,zero,0x7
9d0032dc:	00006010 	mfhi	t4
9d0032e0:	00005812 	mflo	t3
9d0032e4:	310affff 	andi	t2,t0,0xffff
9d0032e8:	00022402 	srl	a0,v0,0x10
9d0032ec:	00003012 	mflo	a2
9d0032f0:	716a3802 	mul	a3,t3,t2
9d0032f4:	000c6400 	sll	t4,t4,0x10
9d0032f8:	01842025 	or	a0,t4,a0
9d0032fc:	0087602b 	sltu	t4,a0,a3
9d003300:	0123001b 	divu	zero,t1,v1
9d003304:	006001f4 	teq	v1,zero,0x7
9d003308:	1180000b 	beqz	t4,9d003338 <__udivdi3+0xa4>
9d00330c:	00872823 	subu	a1,a0,a3
9d003310:	00882021 	addu	a0,a0,t0
9d003314:	0088282b 	sltu	a1,a0,t0
9d003318:	14a00006 	bnez	a1,9d003334 <__udivdi3+0xa0>
9d00331c:	2566ffff 	addiu	a2,t3,-1
9d003320:	0087282b 	sltu	a1,a0,a3
9d003324:	10a00004 	beqz	a1,9d003338 <__udivdi3+0xa4>
9d003328:	00872823 	subu	a1,a0,a3
9d00332c:	2566fffe 	addiu	a2,t3,-2
9d003330:	00882021 	addu	a0,a0,t0
9d003334:	00872823 	subu	a1,a0,a3
9d003338:	3042ffff 	andi	v0,v0,0xffff
9d00333c:	00a3001b 	divu	zero,a1,v1
9d003340:	006001f4 	teq	v1,zero,0x7
9d003344:	00004810 	mfhi	t1
9d003348:	00003812 	mflo	a3
9d00334c:	00002012 	mflo	a0
9d003350:	70ea5002 	mul	t2,a3,t2
9d003354:	00094c00 	sll	t1,t1,0x10
9d003358:	01221025 	or	v0,t1,v0
9d00335c:	004a482b 	sltu	t1,v0,t2
9d003360:	00a3001b 	divu	zero,a1,v1
9d003364:	006001f4 	teq	v1,zero,0x7
9d003368:	51200009 	beqzl	t1,9d003390 <__udivdi3+0xfc>
9d00336c:	00061400 	sll	v0,a2,0x10
9d003370:	00481021 	addu	v0,v0,t0
9d003374:	0048402b 	sltu	t0,v0,t0
9d003378:	15000004 	bnez	t0,9d00338c <__udivdi3+0xf8>
9d00337c:	24e4ffff 	addiu	a0,a3,-1
9d003380:	004a502b 	sltu	t2,v0,t2
9d003384:	24e7fffe 	addiu	a3,a3,-2
9d003388:	00ea200b 	movn	a0,a3,t2
9d00338c:	00061400 	sll	v0,a2,0x10
9d003390:	00821025 	or	v0,a0,v0
9d003394:	03e00008 	jr	ra
9d003398:	00001821 	move	v1,zero
9d00339c:	00a7102b 	sltu	v0,a1,a3
9d0033a0:	14400044 	bnez	v0,9d0034b4 <__udivdi3+0x220>
9d0033a4:	70e84020 	clz	t0,a3
9d0033a8:	55000045 	bnezl	t0,9d0034c0 <__udivdi3+0x22c>
9d0033ac:	24020020 	li	v0,32
9d0033b0:	00e5282b 	sltu	a1,a3,a1
9d0033b4:	14a000c8 	bnez	a1,9d0036d8 <__udivdi3+0x444>
9d0033b8:	0086302b 	sltu	a2,a0,a2
9d0033bc:	38c20001 	xori	v0,a2,0x1
9d0033c0:	03e00008 	jr	ra
9d0033c4:	00001821 	move	v1,zero
9d0033c8:	14c00006 	bnez	a2,9d0033e4 <__udivdi3+0x150>
9d0033cc:	71031820 	clz	v1,t0
9d0033d0:	24030001 	li	v1,1
9d0033d4:	0066001b 	divu	zero,v1,a2
9d0033d8:	00c001f4 	teq	a2,zero,0x7
9d0033dc:	00004012 	mflo	t0
9d0033e0:	71031820 	clz	v1,t0
9d0033e4:	5460007b 	bnezl	v1,9d0035d4 <__udivdi3+0x340>
9d0033e8:	00684004 	sllv	t0,t0,v1
9d0033ec:	00a82023 	subu	a0,a1,t0
9d0033f0:	00083c02 	srl	a3,t0,0x10
9d0033f4:	310bffff 	andi	t3,t0,0xffff
9d0033f8:	24030001 	li	v1,1
9d0033fc:	00023402 	srl	a2,v0,0x10
9d003400:	0087001b 	divu	zero,a0,a3
9d003404:	00e001f4 	teq	a3,zero,0x7
9d003408:	00006810 	mfhi	t5
9d00340c:	00006012 	mflo	t4
9d003410:	00004812 	mflo	t1
9d003414:	718b5002 	mul	t2,t4,t3
9d003418:	000d6c00 	sll	t5,t5,0x10
9d00341c:	01a63025 	or	a2,t5,a2
9d003420:	00ca682b 	sltu	t5,a2,t2
9d003424:	0087001b 	divu	zero,a0,a3
9d003428:	00e001f4 	teq	a3,zero,0x7
9d00342c:	11a00009 	beqz	t5,9d003454 <__udivdi3+0x1c0>
9d003430:	00ca2823 	subu	a1,a2,t2
9d003434:	00c83021 	addu	a2,a2,t0
9d003438:	00c8202b 	sltu	a0,a2,t0
9d00343c:	14800004 	bnez	a0,9d003450 <__udivdi3+0x1bc>
9d003440:	2589ffff 	addiu	t1,t4,-1
9d003444:	00ca202b 	sltu	a0,a2,t2
9d003448:	548000a6 	bnezl	a0,9d0036e4 <__udivdi3+0x450>
9d00344c:	2589fffe 	addiu	t1,t4,-2
9d003450:	00ca2823 	subu	a1,a2,t2
9d003454:	3042ffff 	andi	v0,v0,0xffff
9d003458:	00a7001b 	divu	zero,a1,a3
9d00345c:	00e001f4 	teq	a3,zero,0x7
9d003460:	00005010 	mfhi	t2
9d003464:	00003012 	mflo	a2
9d003468:	00002012 	mflo	a0
9d00346c:	70cb5802 	mul	t3,a2,t3
9d003470:	000a5400 	sll	t2,t2,0x10
9d003474:	01421025 	or	v0,t2,v0
9d003478:	004b502b 	sltu	t2,v0,t3
9d00347c:	00a7001b 	divu	zero,a1,a3
9d003480:	00e001f4 	teq	a3,zero,0x7
9d003484:	51400009 	beqzl	t2,9d0034ac <__udivdi3+0x218>
9d003488:	00091400 	sll	v0,t1,0x10
9d00348c:	00481021 	addu	v0,v0,t0
9d003490:	0048402b 	sltu	t0,v0,t0
9d003494:	15000004 	bnez	t0,9d0034a8 <__udivdi3+0x214>
9d003498:	24c4ffff 	addiu	a0,a2,-1
9d00349c:	004b582b 	sltu	t3,v0,t3
9d0034a0:	24c6fffe 	addiu	a2,a2,-2
9d0034a4:	00cb200b 	movn	a0,a2,t3
9d0034a8:	00091400 	sll	v0,t1,0x10
9d0034ac:	03e00008 	jr	ra
9d0034b0:	00821025 	or	v0,a0,v0
9d0034b4:	00001821 	move	v1,zero
9d0034b8:	03e00008 	jr	ra
9d0034bc:	00001021 	move	v0,zero
9d0034c0:	00481023 	subu	v0,v0,t0
9d0034c4:	01073804 	sllv	a3,a3,t0
9d0034c8:	00461806 	srlv	v1,a2,v0
9d0034cc:	00673825 	or	a3,v1,a3
9d0034d0:	00455006 	srlv	t2,a1,v0
9d0034d4:	00071c02 	srl	v1,a3,0x10
9d0034d8:	0143001b 	divu	zero,t2,v1
9d0034dc:	006001f4 	teq	v1,zero,0x7
9d0034e0:	00004810 	mfhi	t1
9d0034e4:	00006812 	mflo	t5
9d0034e8:	30ebffff 	andi	t3,a3,0xffff
9d0034ec:	01052804 	sllv	a1,a1,t0
9d0034f0:	00441006 	srlv	v0,a0,v0
9d0034f4:	00452825 	or	a1,v0,a1
9d0034f8:	00057402 	srl	t6,a1,0x10
9d0034fc:	00001012 	mflo	v0
9d003500:	71ab6002 	mul	t4,t5,t3
9d003504:	00094c00 	sll	t1,t1,0x10
9d003508:	012e4825 	or	t1,t1,t6
9d00350c:	012c702b 	sltu	t6,t1,t4
9d003510:	0143001b 	divu	zero,t2,v1
9d003514:	006001f4 	teq	v1,zero,0x7
9d003518:	11c0000a 	beqz	t6,9d003544 <__udivdi3+0x2b0>
9d00351c:	01063004 	sllv	a2,a2,t0
9d003520:	01274821 	addu	t1,t1,a3
9d003524:	0127502b 	sltu	t2,t1,a3
9d003528:	15400006 	bnez	t2,9d003544 <__udivdi3+0x2b0>
9d00352c:	25a2ffff 	addiu	v0,t5,-1
9d003530:	012c502b 	sltu	t2,t1,t4
9d003534:	51400004 	beqzl	t2,9d003548 <__udivdi3+0x2b4>
9d003538:	012c4823 	subu	t1,t1,t4
9d00353c:	25a2fffe 	addiu	v0,t5,-2
9d003540:	01274821 	addu	t1,t1,a3
9d003544:	012c4823 	subu	t1,t1,t4
9d003548:	30a5ffff 	andi	a1,a1,0xffff
9d00354c:	0123001b 	divu	zero,t1,v1
9d003550:	006001f4 	teq	v1,zero,0x7
9d003554:	00006810 	mfhi	t5
9d003558:	00006012 	mflo	t4
9d00355c:	00005012 	mflo	t2
9d003560:	718b5802 	mul	t3,t4,t3
9d003564:	000d6c00 	sll	t5,t5,0x10
9d003568:	01a52825 	or	a1,t5,a1
9d00356c:	00ab682b 	sltu	t5,a1,t3
9d003570:	0123001b 	divu	zero,t1,v1
9d003574:	006001f4 	teq	v1,zero,0x7
9d003578:	51a0000b 	beqzl	t5,9d0035a8 <__udivdi3+0x314>
9d00357c:	00021400 	sll	v0,v0,0x10
9d003580:	00a72821 	addu	a1,a1,a3
9d003584:	00a7182b 	sltu	v1,a1,a3
9d003588:	14600006 	bnez	v1,9d0035a4 <__udivdi3+0x310>
9d00358c:	258affff 	addiu	t2,t4,-1
9d003590:	00ab182b 	sltu	v1,a1,t3
9d003594:	50600004 	beqzl	v1,9d0035a8 <__udivdi3+0x314>
9d003598:	00021400 	sll	v0,v0,0x10
9d00359c:	258afffe 	addiu	t2,t4,-2
9d0035a0:	00a72821 	addu	a1,a1,a3
9d0035a4:	00021400 	sll	v0,v0,0x10
9d0035a8:	01421025 	or	v0,t2,v0
9d0035ac:	00ab2823 	subu	a1,a1,t3
9d0035b0:	00460019 	multu	v0,a2
9d0035b4:	00003810 	mfhi	a3
9d0035b8:	00a7182b 	sltu	v1,a1,a3
9d0035bc:	14600044 	bnez	v1,9d0036d0 <__udivdi3+0x43c>
9d0035c0:	00003012 	mflo	a2
9d0035c4:	10a7003f 	beq	a1,a3,9d0036c4 <__udivdi3+0x430>
9d0035c8:	01042004 	sllv	a0,a0,t0
9d0035cc:	03e00008 	jr	ra
9d0035d0:	00001821 	move	v1,zero
9d0035d4:	24020020 	li	v0,32
9d0035d8:	00431023 	subu	v0,v0,v1
9d0035dc:	00454806 	srlv	t1,a1,v0
9d0035e0:	00083c02 	srl	a3,t0,0x10
9d0035e4:	0127001b 	divu	zero,t1,a3
9d0035e8:	00e001f4 	teq	a3,zero,0x7
9d0035ec:	00003010 	mfhi	a2
9d0035f0:	00006012 	mflo	t4
9d0035f4:	310bffff 	andi	t3,t0,0xffff
9d0035f8:	00652804 	sllv	a1,a1,v1
9d0035fc:	00441006 	srlv	v0,a0,v0
9d003600:	00452825 	or	a1,v0,a1
9d003604:	00056c02 	srl	t5,a1,0x10
9d003608:	00641004 	sllv	v0,a0,v1
9d00360c:	00001812 	mflo	v1
9d003610:	718b5002 	mul	t2,t4,t3
9d003614:	00063400 	sll	a2,a2,0x10
9d003618:	01a63025 	or	a2,t5,a2
9d00361c:	00ca202b 	sltu	a0,a2,t2
9d003620:	0127001b 	divu	zero,t1,a3
9d003624:	00e001f4 	teq	a3,zero,0x7
9d003628:	5080000b 	beqzl	a0,9d003658 <__udivdi3+0x3c4>
9d00362c:	00ca3023 	subu	a2,a2,t2
9d003630:	00c83021 	addu	a2,a2,t0
9d003634:	00c8202b 	sltu	a0,a2,t0
9d003638:	14800006 	bnez	a0,9d003654 <__udivdi3+0x3c0>
9d00363c:	2583ffff 	addiu	v1,t4,-1
9d003640:	00ca202b 	sltu	a0,a2,t2
9d003644:	50800004 	beqzl	a0,9d003658 <__udivdi3+0x3c4>
9d003648:	00ca3023 	subu	a2,a2,t2
9d00364c:	2583fffe 	addiu	v1,t4,-2
9d003650:	00c83021 	addu	a2,a2,t0
9d003654:	00ca3023 	subu	a2,a2,t2
9d003658:	30acffff 	andi	t4,a1,0xffff
9d00365c:	00c7001b 	divu	zero,a2,a3
9d003660:	00e001f4 	teq	a3,zero,0x7
9d003664:	00002010 	mfhi	a0
9d003668:	00005012 	mflo	t2
9d00366c:	00004812 	mflo	t1
9d003670:	714b2802 	mul	a1,t2,t3
9d003674:	00042400 	sll	a0,a0,0x10
9d003678:	008c2025 	or	a0,a0,t4
9d00367c:	0085602b 	sltu	t4,a0,a1
9d003680:	00c7001b 	divu	zero,a2,a3
9d003684:	00e001f4 	teq	a3,zero,0x7
9d003688:	5180000b 	beqzl	t4,9d0036b8 <__udivdi3+0x424>
9d00368c:	00031c00 	sll	v1,v1,0x10
9d003690:	00882021 	addu	a0,a0,t0
9d003694:	0088302b 	sltu	a2,a0,t0
9d003698:	14c00006 	bnez	a2,9d0036b4 <__udivdi3+0x420>
9d00369c:	2549ffff 	addiu	t1,t2,-1
9d0036a0:	0085302b 	sltu	a2,a0,a1
9d0036a4:	50c00004 	beqzl	a2,9d0036b8 <__udivdi3+0x424>
9d0036a8:	00031c00 	sll	v1,v1,0x10
9d0036ac:	2549fffe 	addiu	t1,t2,-2
9d0036b0:	00882021 	addu	a0,a0,t0
9d0036b4:	00031c00 	sll	v1,v1,0x10
9d0036b8:	00852023 	subu	a0,a0,a1
9d0036bc:	0b400cff 	j	9d0033fc <__udivdi3+0x168>
9d0036c0:	01231825 	or	v1,t1,v1
9d0036c4:	0086302b 	sltu	a2,a0,a2
9d0036c8:	10c0ffc0 	beqz	a2,9d0035cc <__udivdi3+0x338>
9d0036cc:	00000000 	nop
9d0036d0:	0b400d73 	j	9d0035cc <__udivdi3+0x338>
9d0036d4:	2442ffff 	addiu	v0,v0,-1
9d0036d8:	00001821 	move	v1,zero
9d0036dc:	03e00008 	jr	ra
9d0036e0:	24020001 	li	v0,1
9d0036e4:	0b400d14 	j	9d003450 <__udivdi3+0x1bc>
9d0036e8:	00c83021 	addu	a2,a2,t0

Disassembly of section .text:

9d0036ec <Controller>:

void adc_intialize(void);


void __ISR(_TIMER_2_VECTOR, IPL5SOFT) Controller(void)
{
9d0036ec:	415de800 	rdpgpr	sp,sp
9d0036f0:	401a7000 	mfc0	k0,c0_epc
9d0036f4:	401b6000 	mfc0	k1,c0_status
9d0036f8:	27bdffe8 	addiu	sp,sp,-24
9d0036fc:	afba0014 	sw	k0,20(sp)
9d003700:	401a6002 	mfc0	k0,c0_srsctl
9d003704:	afbb0010 	sw	k1,16(sp)
9d003708:	afba000c 	sw	k0,12(sp)
9d00370c:	7c1b7844 	ins	k1,zero,0x1,0xf
9d003710:	377b1400 	ori	k1,k1,0x1400
9d003714:	409b6000 	mtc0	k1,c0_status
9d003718:	afa30004 	sw	v1,4(sp)
  static int decctr=0;
  static int adcval=0;
  static float u = 0;
  static float unew = 0;

}
9d00371c:	8fa30004 	lw	v1,4(sp)
9d003720:	41606000 	di
9d003724:	000000c0 	ehb
9d003728:	8fba0014 	lw	k0,20(sp)
9d00372c:	8fbb0010 	lw	k1,16(sp)
9d003730:	409a7000 	mtc0	k0,c0_epc
9d003734:	8fba000c 	lw	k0,12(sp)
9d003738:	27bd0018 	addiu	sp,sp,24
9d00373c:	409a6002 	mtc0	k0,c0_srsctl
9d003740:	41dde800 	wrpgpr	sp,sp
9d003744:	409b6000 	mtc0	k1,c0_status
9d003748:	42000018 	eret

9d00374c <adc_sample_convert>:



int adc_sample_convert(int pin) { // sample & convert the value on the given
9d00374c:	27bdfff8 	addiu	sp,sp,-8
9d003750:	afbf0004 	sw	ra,4(sp)
                                           // adc pin the pin should be configured as an
                                           // analog input in AD1PCFG

    unsigned int elapsed = 0, finish_time = 0;
    AD1CHSbits.CH0SA = pin;                // connect chosen pin to MUXA for sampling
9d003754:	3c02bf81 	lui	v0,0xbf81
9d003758:	8c439040 	lw	v1,-28608(v0)
9d00375c:	7c839c04 	ins	v1,a0,0x10,0x4
9d003760:	ac439040 	sw	v1,-28608(v0)
    AD1CON1bits.SAMP = 1;                  // start sampling
9d003764:	3c02bf81 	lui	v0,0xbf81
9d003768:	94439000 	lhu	v1,-28672(v0)
9d00376c:	24040001 	li	a0,1
9d003770:	7c830844 	ins	v1,a0,0x1,0x1
9d003774:	a4439000 	sh	v1,-28672(v0)
    elapsed = _CP0_GET_COUNT();
9d003778:	40034800 	mfc0	v1,c0_count
    finish_time = elapsed + SAMPLE_TIME;
9d00377c:	2463000a 	addiu	v1,v1,10
    while (_CP0_GET_COUNT() < finish_time) {
9d003780:	40024800 	mfc0	v0,c0_count
9d003784:	0043102b 	sltu	v0,v0,v1
9d003788:	1440fffd 	bnez	v0,9d003780 <adc_sample_convert+0x34>
9d00378c:	3c02bf81 	lui	v0,0xbf81
      ;                                   // sample for more than 250 ns
    }
    AD1CON1bits.SAMP = 0;                 // stop sampling and start converting
9d003790:	94439000 	lhu	v1,-28672(v0)
9d003794:	7c030844 	ins	v1,zero,0x1,0x1
9d003798:	a4439000 	sh	v1,-28672(v0)
    while (!AD1CON1bits.DONE) {
9d00379c:	00401821 	move	v1,v0
9d0037a0:	8c629000 	lw	v0,-28672(v1)
9d0037a4:	30420001 	andi	v0,v0,0x1
9d0037a8:	1040fffd 	beqz	v0,9d0037a0 <adc_sample_convert+0x54>
9d0037ac:	3c02bf81 	lui	v0,0xbf81
      ;                                   // wait for the conversion process to finish
    }
    return ADC1BUF0;                      // read the buffer with the result
9d0037b0:	8c429070 	lw	v0,-28560(v0)
}
9d0037b4:	8fbf0004 	lw	ra,4(sp)
9d0037b8:	03e00008 	jr	ra
9d0037bc:	27bd0008 	addiu	sp,sp,8

9d0037c0 <adc_intialize>:
  return 0;
}


void adc_intialize(void){
  AD1PCFGbits.PCFG0 = 0;
9d0037c0:	3c02bf81 	lui	v0,0xbf81
9d0037c4:	94439060 	lhu	v1,-28576(v0)
9d0037c8:	7c030004 	ins	v1,zero,0x0,0x1
9d0037cc:	a4439060 	sh	v1,-28576(v0)
  AD1CON3bits.ADCS = 2;
9d0037d0:	24030002 	li	v1,2
9d0037d4:	3c02bf81 	lui	v0,0xbf81
9d0037d8:	a0439020 	sb	v1,-28640(v0)
  AD1CON1bits.ADON = 1;
9d0037dc:	3c02bf81 	lui	v0,0xbf81
9d0037e0:	94439000 	lhu	v1,-28672(v0)
9d0037e4:	24040001 	li	a0,1
9d0037e8:	7c837bc4 	ins	v1,a0,0xf,0x1
9d0037ec:	a4439000 	sh	v1,-28672(v0)
9d0037f0:	03e00008 	jr	ra
9d0037f4:	00000000 	nop

9d0037f8 <main>:
}



int main()
{
9d0037f8:	27bdff08 	addiu	sp,sp,-248
9d0037fc:	afbf00f4 	sw	ra,244(sp)
9d003800:	afb500f0 	sw	s5,240(sp)
9d003804:	afb400ec 	sw	s4,236(sp)
9d003808:	afb300e8 	sw	s3,232(sp)
9d00380c:	afb200e4 	sw	s2,228(sp)
9d003810:	afb100e0 	sw	s1,224(sp)
  unsigned int sample = 0,elapsed=0;
  float adc_current = 0.0;
  char buffer[BUF_SIZE];
  adc_intialize();
9d003814:	0f400df0 	jal	9d0037c0 <adc_intialize>
9d003818:	afb000dc 	sw	s0,220(sp)

9d00381c <.LVL8>:
  NU32_Startup(); // cache on, min flash wait, interrupts on, LED/button init, UART init
9d00381c:	0f400fcc 	jal	9d003f30 <NU32_Startup>
9d003820:	00000000 	nop

9d003824 <.LVL9>:
  NU32_LED1 = 1;  // turn off the LEDs
9d003824:	3c02bf88 	lui	v0,0xbf88
9d003828:	90436160 	lbu	v1,24928(v0)
9d00382c:	24040001 	li	a0,1
9d003830:	7c830004 	ins	v1,a0,0x0,0x1
9d003834:	a0436160 	sb	v1,24928(v0)
  NU32_LED2 = 1;
9d003838:	90436160 	lbu	v1,24928(v0)
9d00383c:	7c830844 	ins	v1,a0,0x1,0x1
9d003840:	a0436160 	sb	v1,24928(v0)
  __builtin_disable_interrupts();
9d003844:	41626000 	di	v0
9d003848:	000000c0 	ehb
  encoder_init(); // in future, initialize modules or peripherals here
9d00384c:	0f401167 	jal	9d00459c <encoder_init>
9d003850:	00000000 	nop

9d003854 <.LVL10>:
  __builtin_enable_interrupts();
9d003854:	41626020 	ei	v0

  while(1)
  {
    NU32_ReadUART3(buffer,BUF_SIZE); // we expect the next character to be a menu command
    NU32_LED2 = 1;                   // clear the error LED
9d003858:	3c10bf88 	lui	s0,0xbf88
    switch (buffer[0]) {
9d00385c:	3c129d00 	lui	s2,0x9d00
9d003860:	265238c0 	addiu	s2,s2,14528
        break;
      }

      case 'r':                      // get mode
            {
              sprintf(buffer, "%d\r\n", get_mode());
9d003864:	3c139d00 	lui	s3,0x9d00

      case 'b':
      {
        _CP0_SET_COUNT(0);                    // set the core timer count to zero
        sample = adc_sample_convert(0);
        adc_current = (float) (1.98*sample - 1020);
9d003868:	3c029d00 	lui	v0,0x9d00
9d00386c:	8c5553f4 	lw	s5,21492(v0)
9d003870:	3c029d00 	lui	v0,0x9d00
9d003874:	8c5453f8 	lw	s4,21496(v0)
  __builtin_enable_interrupts();

  while(1)
  {
    NU32_ReadUART3(buffer,BUF_SIZE); // we expect the next character to be a menu command
    NU32_LED2 = 1;                   // clear the error LED
9d003878:	24110001 	li	s1,1
  encoder_init(); // in future, initialize modules or peripherals here
  __builtin_enable_interrupts();

  while(1)
  {
    NU32_ReadUART3(buffer,BUF_SIZE); // we expect the next character to be a menu command
9d00387c:	27a40010 	addiu	a0,sp,16
9d003880:	0f401011 	jal	9d004044 <NU32_ReadUART3>
9d003884:	240500c8 	li	a1,200

9d003888 <.LVL12>:
    NU32_LED2 = 1;                   // clear the error LED
9d003888:	92026160 	lbu	v0,24928(s0)
9d00388c:	7e220844 	ins	v0,s1,0x1,0x1
9d003890:	a2026160 	sb	v0,24928(s0)
    switch (buffer[0]) {
9d003894:	93a20010 	lbu	v0,16(sp)
9d003898:	2442ff9f 	addiu	v0,v0,-97
9d00389c:	304300ff 	andi	v1,v0,0xff
9d0038a0:	2c630012 	sltiu	v1,v1,18
9d0038a4:	10600073 	beqz	v1,9d003a74 <.LVL36+0x8>
9d0038a8:	304200ff 	andi	v0,v0,0xff
9d0038ac:	00021080 	sll	v0,v0,0x2
9d0038b0:	02421021 	addu	v0,s2,v0
9d0038b4:	8c420000 	lw	v0,0(v0)
9d0038b8:	00400008 	jr	v0
9d0038bc:	00000000 	nop
9d0038c0:	9d003908 	0x9d003908
9d0038c4:	9d00393c 	0x9d00393c
9d0038c8:	9d003994 	0x9d003994
9d0038cc:	9d0039bc 	0x9d0039bc
9d0038d0:	9d003a24 	0x9d003a24
9d0038d4:	9d003a74 	0x9d003a74
9d0038d8:	9d003a74 	0x9d003a74
9d0038dc:	9d003a74 	0x9d003a74
9d0038e0:	9d003a74 	0x9d003a74
9d0038e4:	9d003a74 	0x9d003a74
9d0038e8:	9d003a74 	0x9d003a74
9d0038ec:	9d003a74 	0x9d003a74
9d0038f0:	9d003a74 	0x9d003a74
9d0038f4:	9d003a74 	0x9d003a74
9d0038f8:	9d003a74 	0x9d003a74
9d0038fc:	9d003a74 	0x9d003a74
9d003900:	9d00387c 	0x9d00387c
9d003904:	9d003a4c 	0x9d003a4c
      case 'a':
      {
        _CP0_SET_COUNT(0);                    // set the core timer count to zero
9d003908:	00001021 	move	v0,zero
9d00390c:	40824800 	mtc0	v0,c0_count
9d003910:	000000c0 	ehb
        sample = adc_sample_convert(0);
9d003914:	0f400dd3 	jal	9d00374c <adc_sample_convert>
9d003918:	00002021 	move	a0,zero

9d00391c <.LVL13>:
        sprintf(buffer,"%d\r\n",sample);
9d00391c:	27a40010 	addiu	a0,sp,16
9d003920:	266553e4 	addiu	a1,s3,21476
9d003924:	0f4013df 	jal	9d004f7c <_sprintf_cdfFnopuxX>
9d003928:	00403021 	move	a2,v0

9d00392c <.LVL14>:

        NU32_WriteUART3(buffer);
9d00392c:	0f40102e 	jal	9d0040b8 <NU32_WriteUART3>
9d003930:	27a40010 	addiu	a0,sp,16

9d003934 <.LVL15>:
        break;
9d003934:	0b400e1f 	j	9d00387c <.LVL10+0x28>
9d003938:	24110001 	li	s1,1
      }

      case 'b':
      {
        _CP0_SET_COUNT(0);                    // set the core timer count to zero
9d00393c:	00001021 	move	v0,zero
9d003940:	40824800 	mtc0	v0,c0_count
9d003944:	000000c0 	ehb
        sample = adc_sample_convert(0);
9d003948:	0f400dd3 	jal	9d00374c <adc_sample_convert>
9d00394c:	00002021 	move	a0,zero

9d003950 <.LVL16>:
        adc_current = (float) (1.98*sample - 1020);
9d003950:	0f401456 	jal	9d005158 <__floatunsisf>
9d003954:	00402021 	move	a0,v0
9d003958:	00402021 	move	a0,v0
9d00395c:	0f40103d 	jal	9d0040f4 <.LFE9>
9d003960:	02a02821 	move	a1,s5
9d003964:	00402021 	move	a0,v0
9d003968:	0f400ea2 	jal	9d003a88 <.LFE9>
9d00396c:	02802821 	move	a1,s4
        sprintf(buffer,"%f\r\n",adc_current);
9d003970:	27a40010 	addiu	a0,sp,16
9d003974:	3c059d00 	lui	a1,0x9d00
9d003978:	24a553ec 	addiu	a1,a1,21484
9d00397c:	0f4013df 	jal	9d004f7c <_sprintf_cdfFnopuxX>
9d003980:	00403021 	move	a2,v0

9d003984 <.LVL20>:

        NU32_WriteUART3(buffer);
9d003984:	0f40102e 	jal	9d0040b8 <NU32_WriteUART3>
9d003988:	27a40010 	addiu	a0,sp,16

9d00398c <.LVL21>:
        break;
9d00398c:	0b400e1f 	j	9d00387c <.LVL10+0x28>
9d003990:	24110001 	li	s1,1

9d003994 <.LBB3>:



      case 'c':                      // dummy command for demonstration purposes
      {
        sprintf(buffer,"%d\r\n",encoder_counts());
9d003994:	0f401159 	jal	9d004564 <encoder_counts>
9d003998:	24110001 	li	s1,1

9d00399c <.LVL22>:
9d00399c:	27a40010 	addiu	a0,sp,16
9d0039a0:	266553e4 	addiu	a1,s3,21476
9d0039a4:	0f4013df 	jal	9d004f7c <_sprintf_cdfFnopuxX>
9d0039a8:	00403021 	move	a2,v0

9d0039ac <.LVL23>:
        NU32_WriteUART3(buffer);
9d0039ac:	0f40102e 	jal	9d0040b8 <NU32_WriteUART3>
9d0039b0:	27a40010 	addiu	a0,sp,16

9d0039b4 <.LVL24>:
        break;
9d0039b4:	0b400e20 	j	9d003880 <.LVL10+0x2c>
9d0039b8:	27a40010 	addiu	a0,sp,16

9d0039bc <.LBB4>:
      }
      case 'd':                      // dummy command for demonstration purposes
      {

      	float degrees = (float)(360*(encoder_counts()-32768)/1792);
9d0039bc:	0f401159 	jal	9d004564 <encoder_counts>
9d0039c0:	24110001 	li	s1,1

9d0039c4 <.LVL25>:
9d0039c4:	24428000 	addiu	v0,v0,-32768
9d0039c8:	000218c0 	sll	v1,v0,0x3
9d0039cc:	00021140 	sll	v0,v0,0x5
9d0039d0:	00431023 	subu	v0,v0,v1
9d0039d4:	00021900 	sll	v1,v0,0x4
9d0039d8:	00621023 	subu	v0,v1,v0
9d0039dc:	3c049249 	lui	a0,0x9249
9d0039e0:	24842493 	addiu	a0,a0,9363
9d0039e4:	00440018 	mult	v0,a0
9d0039e8:	00002010 	mfhi	a0
9d0039ec:	00822021 	addu	a0,a0,v0
9d0039f0:	00042283 	sra	a0,a0,0xa
9d0039f4:	000217c3 	sra	v0,v0,0x1f
9d0039f8:	0f401414 	jal	9d005050 <__floatsisf>
9d0039fc:	00822023 	subu	a0,a0,v0
        sprintf(buffer,"%f\r\n",degrees);
9d003a00:	27a40010 	addiu	a0,sp,16
9d003a04:	3c059d00 	lui	a1,0x9d00
9d003a08:	24a553ec 	addiu	a1,a1,21484
9d003a0c:	0f4013df 	jal	9d004f7c <_sprintf_cdfFnopuxX>
9d003a10:	00403021 	move	a2,v0

9d003a14 <.LVL29>:
        NU32_WriteUART3(buffer);
9d003a14:	0f40102e 	jal	9d0040b8 <NU32_WriteUART3>
9d003a18:	27a40010 	addiu	a0,sp,16

9d003a1c <.LVL30>:
        break;
9d003a1c:	0b400e20 	j	9d003880 <.LVL10+0x2c>
9d003a20:	27a40010 	addiu	a0,sp,16

9d003a24 <.LBB5>:
      }
      case 'e':                      // dummy command for demonstration purposes
      {
        sprintf(buffer,"%d\r\n",encoder_reset());
9d003a24:	0f401160 	jal	9d004580 <encoder_reset>
9d003a28:	24110001 	li	s1,1

9d003a2c <.LVL31>:
9d003a2c:	27a40010 	addiu	a0,sp,16
9d003a30:	266553e4 	addiu	a1,s3,21476
9d003a34:	0f4013df 	jal	9d004f7c <_sprintf_cdfFnopuxX>
9d003a38:	00403021 	move	a2,v0

9d003a3c <.LVL32>:
        NU32_WriteUART3(buffer);
9d003a3c:	0f40102e 	jal	9d0040b8 <NU32_WriteUART3>
9d003a40:	27a40010 	addiu	a0,sp,16

9d003a44 <.LVL33>:
        break;
9d003a44:	0b400e20 	j	9d003880 <.LVL10+0x2c>
9d003a48:	27a40010 	addiu	a0,sp,16

9d003a4c <.LBE5>:
      }

      case 'r':                      // get mode
            {
              sprintf(buffer, "%d\r\n", get_mode());
9d003a4c:	0f4014f6 	jal	9d0053d8 <get_mode>
9d003a50:	24110001 	li	s1,1

9d003a54 <.LVL34>:
9d003a54:	27a40010 	addiu	a0,sp,16
9d003a58:	266553e4 	addiu	a1,s3,21476
9d003a5c:	0f4013df 	jal	9d004f7c <_sprintf_cdfFnopuxX>
9d003a60:	00403021 	move	a2,v0

9d003a64 <.LVL35>:
              NU32_WriteUART3(buffer);
9d003a64:	0f40102e 	jal	9d0040b8 <NU32_WriteUART3>
9d003a68:	27a40010 	addiu	a0,sp,16

9d003a6c <.LVL36>:
              break;
9d003a6c:	0b400e20 	j	9d003880 <.LVL10+0x2c>
9d003a70:	27a40010 	addiu	a0,sp,16
        // handle q for quit. Later you may want to return to IDLE mode here.
        break;
      }
      default:
      {
        NU32_LED2 = 0;  // turn on LED2 to indicate an error
9d003a74:	92026160 	lbu	v0,24928(s0)
9d003a78:	7c020844 	ins	v0,zero,0x1,0x1
9d003a7c:	a2026160 	sb	v0,24928(s0)
        break;
9d003a80:	0b400e1f 	j	9d00387c <.LVL10+0x28>
9d003a84:	24110001 	li	s1,1

Disassembly of section .text.fpsubadd:

9d003a88 <__subsf3>:
9d003a88:	3c018000 00a12826                       ...<&(..

9d003a90 <__addsf3>:
9d003a90:	00044dc2 312900ff 00055dc2 316b00ff     .M....)1.]....k1
9d003aa0:	3c078000 00044200 01074025 00055200     ...<.B..%@...R..
9d003ab0:	01475025 252dffff 2da100fe 10200061     %PG...-%...-a. .
9d003ac0:	00000000                                ....

9d003ac4 <Blab1>:
9d003ac4:	256dffff 	addiu	t5,t3,-1
9d003ac8:	2da100fe 	sltiu	at,t5,254
9d003acc:	10200077 	beqz	at,9d003cac <BspecB>
9d003ad0:	00000000 	nop

9d003ad4 <Blab2>:
9d003ad4:	012b6023 	subu	t4,t1,t3
9d003ad8:	0580000d 	bltz	t4,9d003b10 <i1>
9d003adc:	00000000 	nop
9d003ae0:	29810020 	slti	at,t4,32
9d003ae4:	14200003 	bnez	at,9d003af4 <i2>
9d003ae8:	00000000 	nop
9d003aec:	10000015 	b	9d003b44 <e1>
9d003af0:	240a0002 	li	t2,2

9d003af4 <i2>:
9d003af4:	000a3025 	or	a2,zero,t2
9d003af8:	018a5006 	srlv	t2,t2,t4
9d003afc:	018a6804 	sllv	t5,t2,t4
9d003b00:	11a60010 	beq	t5,a2,9d003b44 <e1>
9d003b04:	00000000 	nop
9d003b08:	1000000e 	b	9d003b44 <e1>
9d003b0c:	354a0002 	ori	t2,t2,0x2

9d003b10 <i1>:
9d003b10:	000b4825 	or	t1,zero,t3
9d003b14:	000c6023 	negu	t4,t4
9d003b18:	29810020 	slti	at,t4,32
9d003b1c:	14200003 	bnez	at,9d003b2c <i4>
9d003b20:	00000000 	nop
9d003b24:	10000007 	b	9d003b44 <e1>
9d003b28:	24080002 	li	t0,2

9d003b2c <i4>:
9d003b2c:	00083025 	or	a2,zero,t0
9d003b30:	01884006 	srlv	t0,t0,t4
9d003b34:	01886804 	sllv	t5,t0,t4
9d003b38:	11a60002 	beq	t5,a2,9d003b44 <e1>
9d003b3c:	00000000 	nop
9d003b40:	35080002 	ori	t0,t0,0x2

9d003b44 <e1>:
9d003b44:	00876024 	and	t4,a0,a3
9d003b48:	01856826 	xor	t5,t4,a1
9d003b4c:	05a00010 	bltz	t5,9d003b90 <Bsub1>
9d003b50:	00000000 	nop
9d003b54:	010a4021 	addu	t0,t0,t2
9d003b58:	010a682b 	sltu	t5,t0,t2
9d003b5c:	11a00017 	beqz	t5,9d003bbc <Bres>
9d003b60:	00000000 	nop
9d003b64:	310d0001 	andi	t5,t0,0x1
9d003b68:	11a00002 	beqz	t5,9d003b74 <i7>
9d003b6c:	00000000 	nop
9d003b70:	35080002 	ori	t0,t0,0x2

9d003b74 <i7>:
9d003b74:	00084042 	srl	t0,t0,0x1
9d003b78:	25290001 	addiu	t1,t1,1
9d003b7c:	240100ff 	li	at,255
9d003b80:	1521000e 	bne	t1,at,9d003bbc <Bres>
9d003b84:	00000000 	nop
9d003b88:	1000000c 	b	9d003bbc <Bres>
9d003b8c:	24080000 	li	t0,0

9d003b90 <Bsub1>:
9d003b90:	010a682b 	sltu	t5,t0,t2
9d003b94:	11a00004 	beqz	t5,9d003ba8 <i9>
9d003b98:	010a4023 	subu	t0,t0,t2
9d003b9c:	00084023 	negu	t0,t0
9d003ba0:	10000003 	b	9d003bb0 <e9>
9d003ba4:	01876026 	xor	t4,t4,a3

9d003ba8 <i9>:
9d003ba8:	11000050 	beqz	t0,9d003cec <Bzer>
9d003bac:	00000000 	nop

9d003bb0 <e9>:
9d003bb0:	71063020 	clz	a2,t0
9d003bb4:	01264823 	subu	t1,t1,a2
9d003bb8:	00c84004 	sllv	t0,t0,a2

9d003bbc <Bres>:
9d003bbc:	1920000e 	blez	t1,9d003bf8 <Bund>
9d003bc0:	00000000 	nop

9d003bc4 <Blab12>:
9d003bc4:	25080080 	addiu	t0,t0,128
9d003bc8:	2d0d0080 	sltiu	t5,t0,128
9d003bcc:	012d4821 	addu	t1,t1,t5
9d003bd0:	00086a02 	srl	t5,t0,0x8
9d003bd4:	31ad0001 	andi	t5,t5,0x1
9d003bd8:	010d4023 	subu	t0,t0,t5
9d003bdc:	00084040 	sll	t0,t0,0x1
9d003be0:	00084242 	srl	t0,t0,0x9
9d003be4:	00096dc0 	sll	t5,t1,0x17
9d003be8:	010d4025 	or	t0,t0,t5
9d003bec:	010c1025 	or	v0,t0,t4

9d003bf0 <B999>:
9d003bf0:	03e00008 	jr	ra
9d003bf4:	00000000 	nop

9d003bf8 <Bund>:
9d003bf8:	24060001 	li	a2,1
9d003bfc:	00c93023 	subu	a2,a2,t1
9d003c00:	2cc10020 	sltiu	at,a2,32
9d003c04:	10200039 	beqz	at,9d003cec <Bzer>
9d003c08:	00000000 	nop
9d003c0c:	3c018000 	lui	at,0x8000
9d003c10:	01014025 	or	t0,t0,at
9d003c14:	240d0020 	li	t5,32
9d003c18:	01a66823 	subu	t5,t5,a2
9d003c1c:	01a84804 	sllv	t1,t0,t5
9d003c20:	11200002 	beqz	t1,9d003c2c <i10>
9d003c24:	00c84006 	srlv	t0,t0,a2
9d003c28:	35080001 	ori	t0,t0,0x1

9d003c2c <i10>:
9d003c2c:	24090000 	li	t1,0
9d003c30:	250d0080 	addiu	t5,t0,128
9d003c34:	05a1ffe3 	bgez	t5,9d003bc4 <Blab12>
9d003c38:	00000000 	nop
9d003c3c:	1000ffe1 	b	9d003bc4 <Blab12>
9d003c40:	24090001 	li	t1,1

9d003c44 <BspecA>:
9d003c44:	1520000e 	bnez	t1,9d003c80 <i12>
9d003c48:	00000000 	nop
9d003c4c:	01084021 	addu	t0,t0,t0
9d003c50:	11000005 	beqz	t0,9d003c68 <i13>
9d003c54:	00000000 	nop
9d003c58:	710c6020 	clz	t4,t0
9d003c5c:	012c4823 	subu	t1,t1,t4
9d003c60:	1000ff98 	b	9d003ac4 <Blab1>
9d003c64:	01884004 	sllv	t0,t0,t4

9d003c68 <i13>:
9d003c68:	240100ff 	li	at,255
9d003c6c:	1161000f 	beq	t3,at,9d003cac <BspecB>
9d003c70:	00000000 	nop
9d003c74:	3c018000 	lui	at,0x8000
9d003c78:	14a10018 	bne	a1,at,9d003cdc <BretB>
9d003c7c:	00000000 	nop

9d003c80 <i12>:
9d003c80:	01086821 	addu	t5,t0,t0
9d003c84:	15a0001b 	bnez	t5,9d003cf4 <Bnan>
9d003c88:	00000000 	nop
9d003c8c:	240100ff 	li	at,255
9d003c90:	15610014 	bne	t3,at,9d003ce4 <BretA>
9d003c94:	00000000 	nop
9d003c98:	00856826 	xor	t5,a0,a1
9d003c9c:	05a00015 	bltz	t5,9d003cf4 <Bnan>
9d003ca0:	00000000 	nop
9d003ca4:	1000000d 	b	9d003cdc <BretB>
9d003ca8:	00000000 	nop

9d003cac <BspecB>:
9d003cac:	15600008 	bnez	t3,9d003cd0 <i15>
9d003cb0:	00000000 	nop
9d003cb4:	014a5021 	addu	t2,t2,t2
9d003cb8:	1140000a 	beqz	t2,9d003ce4 <BretA>
9d003cbc:	00000000 	nop
9d003cc0:	714c6020 	clz	t4,t2
9d003cc4:	016c5823 	subu	t3,t3,t4
9d003cc8:	1000ff82 	b	9d003ad4 <Blab2>
9d003ccc:	018a5004 	sllv	t2,t2,t4

9d003cd0 <i15>:
9d003cd0:	014a6821 	addu	t5,t2,t2
9d003cd4:	15a00007 	bnez	t5,9d003cf4 <Bnan>
9d003cd8:	00000000 	nop

9d003cdc <BretB>:
9d003cdc:	1000ffc4 	b	9d003bf0 <B999>
9d003ce0:	00051025 	or	v0,zero,a1

9d003ce4 <BretA>:
9d003ce4:	1000ffc2 	b	9d003bf0 <B999>
9d003ce8:	00041025 	or	v0,zero,a0

9d003cec <Bzer>:
9d003cec:	1000ffc0 	b	9d003bf0 <B999>
9d003cf0:	24020000 	li	v0,0

9d003cf4 <Bnan>:
9d003cf4:	1000ffbe 	b	9d003bf0 <B999>
9d003cf8:	3c02ffc0 	lui	v0,0xffc0
9d003cfc:	00000000 	nop

Disassembly of section .text.fp32div:

9d003d00 <__divsf3>:
9d003d00:	3c0b8000 000445c2 310800ff 000555c2     ...<.E.....1.U..
9d003d10:	314a00ff 00043a00 00eb3825 00054a00     ..J1.:..%8...J..
9d003d20:	012b4825 00857026 016e5824 250effff     %H+.&p..$Xn....%
9d003d30:	2dc100fe 1020003f 00000000              ...-?. .....

9d003d3c <Dlab1>:
9d003d3c:	254effff 	addiu	t6,t2,-1
9d003d40:	2dc100fe 	sltiu	at,t6,254
9d003d44:	10200053 	beqz	at,9d003e94 <DspecB>
9d003d48:	00000000 	nop

9d003d4c <Dlab2>:
9d003d4c:	00e9082b 	sltu	at,a3,t1
9d003d50:	14200003 	bnez	at,9d003d60 <i27>
9d003d54:	00000000 	nop
9d003d58:	00073842 	srl	a3,a3,0x1
9d003d5c:	25080001 	addiu	t0,t0,1

9d003d60 <i27>:
9d003d60:	00096382 	srl	t4,t1,0xe
9d003d64:	018001f4 	teq	t4,zero,0x7
9d003d68:	00ec001b 	divu	zero,a3,t4
9d003d6c:	00002012 	mflo	a0
9d003d70:	00003010 	mfhi	a2
9d003d74:	312d3fff 	andi	t5,t1,0x3fff
9d003d78:	01a40019 	multu	t5,a0
9d003d7c:	00002812 	mflo	a1
9d003d80:	00063380 	sll	a2,a2,0xe
9d003d84:	00c5702b 	sltu	t6,a2,a1
9d003d88:	11c00004 	beqz	t6,9d003d9c <i28>
9d003d8c:	00c53023 	subu	a2,a2,a1
9d003d90:	2484ffff 	addiu	a0,a0,-1
9d003d94:	00c93021 	addu	a2,a2,t1
9d003d98:	00c9702b 	sltu	t6,a2,t1

9d003d9c <i28>:
9d003d9c:	018001f4 	teq	t4,zero,0x7
9d003da0:	00cc001b 	divu	zero,a2,t4
9d003da4:	00003812 	mflo	a3
9d003da8:	00003010 	mfhi	a2
9d003dac:	01a70019 	multu	t5,a3
9d003db0:	00002812 	mflo	a1
9d003db4:	00063380 	sll	a2,a2,0xe
9d003db8:	00c5702b 	sltu	t6,a2,a1
9d003dbc:	11c00004 	beqz	t6,9d003dd0 <i29>
9d003dc0:	00c53023 	subu	a2,a2,a1
9d003dc4:	24e7ffff 	addiu	a3,a3,-1
9d003dc8:	00c93021 	addu	a2,a2,t1
9d003dcc:	00c9702b 	sltu	t6,a2,t1

9d003dd0 <i29>:
9d003dd0:	00047380 	sll	t6,a0,0xe
9d003dd4:	00ee3821 	addu	a3,a3,t6
9d003dd8:	10c00002 	beqz	a2,9d003de4 <i30>
9d003ddc:	00073900 	sll	a3,a3,0x4
9d003de0:	34e70001 	ori	a3,a3,0x1

9d003de4 <i30>:
9d003de4:	240e007e 	li	t6,126
9d003de8:	01ca7023 	subu	t6,t6,t2
9d003dec:	010e4021 	addu	t0,t0,t6
9d003df0:	250effff 	addiu	t6,t0,-1
9d003df4:	2dc100fe 	sltiu	at,t6,254
9d003df8:	10200034 	beqz	at,9d003ecc <Doveund>
9d003dfc:	00000000 	nop

9d003e00 <Dlab8>:
9d003e00:	24e70080 	addiu	a3,a3,128
9d003e04:	2cee0080 	sltiu	t6,a3,128
9d003e08:	010e4021 	addu	t0,t0,t6
9d003e0c:	00077202 	srl	t6,a3,0x8
9d003e10:	31ce0001 	andi	t6,t6,0x1
9d003e14:	00ee3823 	subu	a3,a3,t6
9d003e18:	00073840 	sll	a3,a3,0x1
9d003e1c:	00073a42 	srl	a3,a3,0x9
9d003e20:	000875c0 	sll	t6,t0,0x17
9d003e24:	00ee3825 	or	a3,a3,t6
9d003e28:	00eb1025 	or	v0,a3,t3

9d003e2c <D999>:
9d003e2c:	03e00008 	jr	ra
9d003e30:	00000000 	nop

9d003e34 <DspecA>:
9d003e34:	15000008 	bnez	t0,9d003e58 <i31>
9d003e38:	00000000 	nop
9d003e3c:	00e73821 	addu	a3,a3,a3
9d003e40:	10e00005 	beqz	a3,9d003e58 <i31>
9d003e44:	00000000 	nop
9d003e48:	70ec6020 	clz	t4,a3
9d003e4c:	010c4023 	subu	t0,t0,t4
9d003e50:	1000ffba 	b	9d003d3c <Dlab1>
9d003e54:	01873804 	sllv	a3,a3,t4

9d003e58 <i31>:
9d003e58:	15480004 	bne	t2,t0,9d003e6c <i33>
9d003e5c:	00000000 	nop
9d003e60:	01297021 	addu	t6,t1,t1
9d003e64:	11c0002f 	beqz	t6,9d003f24 <Dnan>
9d003e68:	00000000 	nop

9d003e6c <i33>:
9d003e6c:	240100ff 	li	at,255
9d003e70:	11410008 	beq	t2,at,9d003e94 <DspecB>
9d003e74:	00000000 	nop
9d003e78:	11000012 	beqz	t0,9d003ec4 <Dzer>
9d003e7c:	00000000 	nop
9d003e80:	00e77021 	addu	t6,a3,a3
9d003e84:	15c00027 	bnez	t6,9d003f24 <Dnan>
9d003e88:	00000000 	nop
9d003e8c:	10000022 	b	9d003f18 <Dinf>
9d003e90:	00000000 	nop

9d003e94 <DspecB>:
9d003e94:	15400008 	bnez	t2,9d003eb8 <i34>
9d003e98:	00000000 	nop
9d003e9c:	01294821 	addu	t1,t1,t1
9d003ea0:	1120001d 	beqz	t1,9d003f18 <Dinf>
9d003ea4:	00000000 	nop
9d003ea8:	712c6020 	clz	t4,t1
9d003eac:	014c5023 	subu	t2,t2,t4
9d003eb0:	1000ffa6 	b	9d003d4c <Dlab2>
9d003eb4:	01894804 	sllv	t1,t1,t4

9d003eb8 <i34>:
9d003eb8:	01297021 	addu	t6,t1,t1
9d003ebc:	15c00019 	bnez	t6,9d003f24 <Dnan>
9d003ec0:	00000000 	nop

9d003ec4 <Dzer>:
9d003ec4:	1000ffd9 	b	9d003e2c <D999>
9d003ec8:	000b1025 	or	v0,zero,t3

9d003ecc <Doveund>:
9d003ecc:	1d000012 	bgtz	t0,9d003f18 <Dinf>
9d003ed0:	00000000 	nop
9d003ed4:	240c0001 	li	t4,1
9d003ed8:	01886023 	subu	t4,t4,t0
9d003edc:	2d810020 	sltiu	at,t4,32
9d003ee0:	1020fff8 	beqz	at,9d003ec4 <Dzer>
9d003ee4:	00000000 	nop
9d003ee8:	240e0020 	li	t6,32
9d003eec:	01cc7023 	subu	t6,t6,t4
9d003ef0:	01c74004 	sllv	t0,a3,t6
9d003ef4:	11000002 	beqz	t0,9d003f00 <i37>
9d003ef8:	01873806 	srlv	a3,a3,t4
9d003efc:	34e70002 	ori	a3,a3,0x2

9d003f00 <i37>:
9d003f00:	24080000 	li	t0,0
9d003f04:	24ee0080 	addiu	t6,a3,128
9d003f08:	05c1ffbd 	bgez	t6,9d003e00 <Dlab8>
9d003f0c:	00000000 	nop
9d003f10:	1000ffbb 	b	9d003e00 <Dlab8>
9d003f14:	24080001 	li	t0,1

9d003f18 <Dinf>:
9d003f18:	3c017f80 	lui	at,0x7f80
9d003f1c:	1000ffc3 	b	9d003e2c <D999>
9d003f20:	01611025 	or	v0,t3,at

9d003f24 <Dnan>:
9d003f24:	1000ffc1 	b	9d003e2c <D999>
9d003f28:	3c02ffc0 	lui	v0,0xffc0
9d003f2c:	00000000 	nop

Disassembly of section .text:

9d003f30 <NU32_Startup>:

// Perform startup routines:
//  Make NU32_LED1 and NU32_LED2 pins outputs (NU32_USER is by default an input)
//  Initialize the serial port - UART3 (no interrupt) 
//  Enable interrupts
void NU32_Startup() {
9d003f30:	27bdfff8 	addiu	sp,sp,-8
9d003f34:	afbf0004 	sw	ra,4(sp)
  // disable interrupts
  __builtin_disable_interrupts();
9d003f38:	41626000 	di	v0
9d003f3c:	000000c0 	ehb
  // see Chapter 2 "CPU for Devices with M4K Core" of the PIC32 reference manual
  // most of the other bits have prescribed values
  // microchip does not provide a _CP0_SET_CONFIG macro, so we directly use
  // the compiler built-in command _mtc0
  // to disable cache, use 0xa4210582 
  __builtin_mtc0(_CP0_CONFIG, _CP0_CONFIG_SELECT, 0xa4210583); 
9d003f40:	3c02a421 	lui	v0,0xa421
9d003f44:	24420583 	addiu	v0,v0,1411
9d003f48:	40828000 	mtc0	v0,c0_config
9d003f4c:	000000c0 	ehb
  
  // set the prefectch cache wait state to 2, as per the
  // electrical characteristics data sheet
  CHECONbits.PFMWS = 0x2;   
9d003f50:	3c02bf88 	lui	v0,0xbf88
9d003f54:	8c434000 	lw	v1,16384(v0)
9d003f58:	24050002 	li	a1,2
9d003f5c:	7ca31004 	ins	v1,a1,0x0,0x3
9d003f60:	ac434000 	sw	v1,16384(v0)

  //enable prefetch for cacheable and noncacheable memory
  CHECONbits.PREFEN = 0x3; 
9d003f64:	8c434000 	lw	v1,16384(v0)
9d003f68:	24040003 	li	a0,3
9d003f6c:	7c832904 	ins	v1,a0,0x4,0x2
9d003f70:	ac434000 	sw	v1,16384(v0)

  // 0 data RAM access wait states
  BMXCONbits.BMXWSDRM = 0x0;
9d003f74:	3c02bf88 	lui	v0,0xbf88
9d003f78:	8c432000 	lw	v1,8192(v0)
9d003f7c:	7c033184 	ins	v1,zero,0x6,0x1
9d003f80:	ac432000 	sw	v1,8192(v0)
  
  // enable multi vector interrupts
  INTCONbits.MVEC = 0x1;
9d003f84:	3c02bf88 	lui	v0,0xbf88
9d003f88:	8c461000 	lw	a2,4096(v0)
9d003f8c:	24030001 	li	v1,1
9d003f90:	7c666304 	ins	a2,v1,0xc,0x1
9d003f94:	ac461000 	sw	a2,4096(v0)

  // disable JTAG to get B10, B11, B12 and B13 back
  DDPCONbits.JTAGEN = 0;
9d003f98:	3c02bf81 	lui	v0,0xbf81
9d003f9c:	9046f200 	lbu	a2,-3584(v0)
9d003fa0:	7c0618c4 	ins	a2,zero,0x3,0x1
9d003fa4:	a046f200 	sb	a2,-3584(v0)

  TRISFCLR = 0x0003;  // Make F0 and F1 outputs (LED1 and LED2)
9d003fa8:	3c02bf88 	lui	v0,0xbf88
9d003fac:	ac446144 	sw	a0,24900(v0)
  NU32_LED1 = 1;      // LED1 is off
9d003fb0:	3c02bf88 	lui	v0,0xbf88
9d003fb4:	90446160 	lbu	a0,24928(v0)
9d003fb8:	7c640004 	ins	a0,v1,0x0,0x1
9d003fbc:	a0446160 	sb	a0,24928(v0)
  NU32_LED2 = 0;      // LED2 is on
9d003fc0:	90446160 	lbu	a0,24928(v0)
9d003fc4:	7c040844 	ins	a0,zero,0x1,0x1
9d003fc8:	a0446160 	sb	a0,24928(v0)

  // turn on UART3 without an interrupt
  U3MODEbits.BRGH = 0; // set baud to NU32_DESIRED_BAUD
9d003fcc:	3c02bf80 	lui	v0,0xbf80
9d003fd0:	94446400 	lhu	a0,25600(v0)
9d003fd4:	7c0418c4 	ins	a0,zero,0x3,0x1
9d003fd8:	a4446400 	sh	a0,25600(v0)
  U3BRG = ((NU32_SYS_FREQ / NU32_DESIRED_BAUD) / 16) - 1;
9d003fdc:	24060014 	li	a2,20
9d003fe0:	3c04bf80 	lui	a0,0xbf80
9d003fe4:	ac866440 	sw	a2,25664(a0)

  // 8 bit, no parity bit, and 1 stop bit (8N1 setup)
  U3MODEbits.PDSEL = 0;
9d003fe8:	94446400 	lhu	a0,25600(v0)
9d003fec:	7c041044 	ins	a0,zero,0x1,0x2
9d003ff0:	a4446400 	sh	a0,25600(v0)
  U3MODEbits.STSEL = 0;
9d003ff4:	94446400 	lhu	a0,25600(v0)
9d003ff8:	7c040004 	ins	a0,zero,0x0,0x1
9d003ffc:	a4446400 	sh	a0,25600(v0)

  // configure TX & RX pins as output & input pins
  U3STAbits.UTXEN = 1;
9d004000:	3c04bf80 	lui	a0,0xbf80
9d004004:	8c866410 	lw	a2,25616(a0)
9d004008:	7c665284 	ins	a2,v1,0xa,0x1
9d00400c:	ac866410 	sw	a2,25616(a0)
  U3STAbits.URXEN = 1;
9d004010:	8c866410 	lw	a2,25616(a0)
9d004014:	7c666304 	ins	a2,v1,0xc,0x1
9d004018:	ac866410 	sw	a2,25616(a0)
  // configure hardware flow control using RTS and CTS
  U3MODEbits.UEN = 2;
9d00401c:	94446400 	lhu	a0,25600(v0)
9d004020:	7ca44a04 	ins	a0,a1,0x8,0x2
9d004024:	a4446400 	sh	a0,25600(v0)

  // enable the uart
  U3MODEbits.ON = 1;
9d004028:	94446400 	lhu	a0,25600(v0)
9d00402c:	7c647bc4 	ins	a0,v1,0xf,0x1
9d004030:	a4446400 	sh	a0,25600(v0)

  __builtin_enable_interrupts();
9d004034:	41626020 	ei	v0
}
9d004038:	8fbf0004 	lw	ra,4(sp)
9d00403c:	03e00008 	jr	ra
9d004040:	27bd0008 	addiu	sp,sp,8

9d004044 <NU32_ReadUART3>:
// Read from UART3
// block other functions until you get a '\r' or '\n'
// send the pointer to your char array and the number of elements in the array
void NU32_ReadUART3(char * message, int maxLength) {
  char data = 0;
  int complete = 0, num_bytes = 0;
9d004044:	00003021 	move	a2,zero
  // loop until you get a '\r' or '\n'
  while (!complete) {
    if (U3STAbits.URXDA) { // if data is available
9d004048:	3c03bf80 	lui	v1,0xbf80
      data = U3RXREG;      // read the data
9d00404c:	3c08bf80 	lui	t0,0xbf80
      if ((data == '\n') || (data == '\r')) {
9d004050:	2407000a 	li	a3,10
9d004054:	0b401025 	j	9d004094 <NU32_ReadUART3+0x50>
9d004058:	2409000d 	li	t1,13
void NU32_ReadUART3(char * message, int maxLength) {
  char data = 0;
  int complete = 0, num_bytes = 0;
  // loop until you get a '\r' or '\n'
  while (!complete) {
    if (U3STAbits.URXDA) { // if data is available
9d00405c:	8c626410 	lw	v0,25616(v1)
9d004060:	30420001 	andi	v0,v0,0x1
9d004064:	1040fffd 	beqz	v0,9d00405c <NU32_ReadUART3+0x18>
9d004068:	00000000 	nop
      data = U3RXREG;      // read the data
9d00406c:	8d026430 	lw	v0,25648(t0)
9d004070:	7c021420 	seb	v0,v0
      if ((data == '\n') || (data == '\r')) {
9d004074:	5047000e 	beql	v0,a3,9d0040b0 <NU32_ReadUART3+0x6c>
9d004078:	00862021 	addu	a0,a0,a2
9d00407c:	1049000b 	beq	v0,t1,9d0040ac <NU32_ReadUART3+0x68>
9d004080:	00865021 	addu	t2,a0,a2
        complete = 1;
      } else {
        message[num_bytes] = data;
9d004084:	a1420000 	sb	v0,0(t2)
        ++num_bytes;
9d004088:	24c60001 	addiu	a2,a2,1
        // roll over if the array is too small
        if (num_bytes >= maxLength) {
9d00408c:	00c5102a 	slt	v0,a2,a1
          num_bytes = 0;
9d004090:	0002300a 	movz	a2,zero,v0
void NU32_ReadUART3(char * message, int maxLength) {
  char data = 0;
  int complete = 0, num_bytes = 0;
  // loop until you get a '\r' or '\n'
  while (!complete) {
    if (U3STAbits.URXDA) { // if data is available
9d004094:	8c626410 	lw	v0,25616(v1)
9d004098:	30420001 	andi	v0,v0,0x1
9d00409c:	1040ffef 	beqz	v0,9d00405c <NU32_ReadUART3+0x18>
9d0040a0:	00000000 	nop
9d0040a4:	0b40101b 	j	9d00406c <NU32_ReadUART3+0x28>
9d0040a8:	00000000 	nop
        }
      }
    }
  }
  // end the string
  message[num_bytes] = '\0';
9d0040ac:	00862021 	addu	a0,a0,a2
9d0040b0:	03e00008 	jr	ra
9d0040b4:	a0800000 	sb	zero,0(a0)

9d0040b8 <NU32_WriteUART3>:
}

// Write a character array using UART3
void NU32_WriteUART3(const char * string) {
  while (*string != '\0') {
9d0040b8:	80850000 	lb	a1,0(a0)
9d0040bc:	10a0000b 	beqz	a1,9d0040ec <NU32_WriteUART3+0x34>
9d0040c0:	3c03bf80 	lui	v1,0xbf80
    while (U3STAbits.UTXBF) {
      ; // wait until tx buffer isn't full
    }
    U3TXREG = *string;
9d0040c4:	3c06bf80 	lui	a2,0xbf80
}

// Write a character array using UART3
void NU32_WriteUART3(const char * string) {
  while (*string != '\0') {
    while (U3STAbits.UTXBF) {
9d0040c8:	8c626410 	lw	v0,25616(v1)
9d0040cc:	30420200 	andi	v0,v0,0x200
9d0040d0:	1440fffd 	bnez	v0,9d0040c8 <NU32_WriteUART3+0x10>
9d0040d4:	00000000 	nop
      ; // wait until tx buffer isn't full
    }
    U3TXREG = *string;
9d0040d8:	acc56420 	sw	a1,25632(a2)
    ++string;
9d0040dc:	24840001 	addiu	a0,a0,1
  message[num_bytes] = '\0';
}

// Write a character array using UART3
void NU32_WriteUART3(const char * string) {
  while (*string != '\0') {
9d0040e0:	80850000 	lb	a1,0(a0)
9d0040e4:	14a0fff8 	bnez	a1,9d0040c8 <NU32_WriteUART3+0x10>
9d0040e8:	00000000 	nop
9d0040ec:	03e00008 	jr	ra
9d0040f0:	00000000 	nop

Disassembly of section .text.fp32mul:

9d0040f4 <__mulsf3>:
9d0040f4:	00043dc2 30e700ff 00054dc2 312900ff     .=.....0.M....)1
9d004104:	3c0a8000 00043200 00ca3025 00054200     ...<.2..%0...B..
9d004114:	010a4025 00856026 014c5024 24ecffff     %@..&`..$PL....$
9d004124:	2d8100fe 10200021 00000000              ...-!. .....

9d004130 <Clab1>:
9d004130:	252cffff 	addiu	t4,t1,-1
9d004134:	2d8100fe 	sltiu	at,t4,254
9d004138:	10200036 	beqz	at,9d004214 <CspecB>
9d00413c:	00000000 	nop

9d004140 <Clab2>:
9d004140:	00c80019 	multu	a2,t0
9d004144:	00005812 	mflo	t3
9d004148:	11600002 	beqz	t3,9d004154 <i17>
9d00414c:	00003010 	mfhi	a2
9d004150:	34c60001 	ori	a2,a2,0x1

9d004154 <i17>:
9d004154:	04c00003 	bltz	a2,9d004164 <i18>
9d004158:	00000000 	nop
9d00415c:	00063040 	sll	a2,a2,0x1
9d004160:	24e7ffff 	addiu	a3,a3,-1

9d004164 <i18>:
9d004164:	252cff82 	addiu	t4,t1,-126
9d004168:	00ec3821 	addu	a3,a3,t4
9d00416c:	24ecffff 	addiu	t4,a3,-1
9d004170:	2d8100fe 	sltiu	at,t4,254
9d004174:	1020003a 	beqz	at,9d004260 <Coveund>
9d004178:	00000000 	nop

9d00417c <Clab8>:
9d00417c:	24c60080 	addiu	a2,a2,128
9d004180:	2ccc0080 	sltiu	t4,a2,128
9d004184:	00ec3821 	addu	a3,a3,t4
9d004188:	00066202 	srl	t4,a2,0x8
9d00418c:	318c0001 	andi	t4,t4,0x1
9d004190:	00cc3023 	subu	a2,a2,t4
9d004194:	00063040 	sll	a2,a2,0x1
9d004198:	00063242 	srl	a2,a2,0x9
9d00419c:	000765c0 	sll	t4,a3,0x17
9d0041a0:	00cc3025 	or	a2,a2,t4
9d0041a4:	00ca1025 	or	v0,a2,t2

9d0041a8 <C999>:
9d0041a8:	03e00008 	jr	ra
9d0041ac:	00000000 	nop

9d0041b0 <CspecA>:
9d0041b0:	14e0000d 	bnez	a3,9d0041e8 <i19>
9d0041b4:	00000000 	nop
9d0041b8:	00c63021 	addu	a2,a2,a2
9d0041bc:	10c00005 	beqz	a2,9d0041d4 <i20>
9d0041c0:	00000000 	nop
9d0041c4:	70cb5820 	clz	t3,a2
9d0041c8:	00eb3823 	subu	a3,a3,t3
9d0041cc:	1000ffd8 	b	9d004130 <Clab1>
9d0041d0:	01663004 	sllv	a2,a2,t3

9d0041d4 <i20>:
9d0041d4:	240100ff 	li	at,255
9d0041d8:	1121001f 	beq	t1,at,9d004258 <Cnan>
9d0041dc:	00000000 	nop
9d0041e0:	10000015 	b	9d004238 <Czer>
9d0041e4:	00000000 	nop

9d0041e8 <i19>:
9d0041e8:	00c66021 	addu	t4,a2,a2
9d0041ec:	1580001a 	bnez	t4,9d004258 <Cnan>
9d0041f0:	00000000 	nop
9d0041f4:	15200004 	bnez	t1,9d004208 <i21>
9d0041f8:	00000000 	nop
9d0041fc:	01086021 	addu	t4,t0,t0
9d004200:	11800015 	beqz	t4,9d004258 <Cnan>
9d004204:	00000000 	nop

9d004208 <i21>:
9d004208:	240100ff 	li	at,255
9d00420c:	1521000f 	bne	t1,at,9d00424c <Cinf>
9d004210:	00000000 	nop

9d004214 <CspecB>:
9d004214:	1520000a 	bnez	t1,9d004240 <i22>
9d004218:	00000000 	nop
9d00421c:	01084021 	addu	t0,t0,t0
9d004220:	11000005 	beqz	t0,9d004238 <Czer>
9d004224:	00000000 	nop
9d004228:	710b5820 	clz	t3,t0
9d00422c:	012b4823 	subu	t1,t1,t3
9d004230:	1000ffc3 	b	9d004140 <Clab2>
9d004234:	01684004 	sllv	t0,t0,t3

9d004238 <Czer>:
9d004238:	1000ffdb 	b	9d0041a8 <C999>
9d00423c:	000a1025 	or	v0,zero,t2

9d004240 <i22>:
9d004240:	01086021 	addu	t4,t0,t0
9d004244:	15800004 	bnez	t4,9d004258 <Cnan>
9d004248:	00000000 	nop

9d00424c <Cinf>:
9d00424c:	3c017f80 	lui	at,0x7f80
9d004250:	1000ffd5 	b	9d0041a8 <C999>
9d004254:	01411025 	or	v0,t2,at

9d004258 <Cnan>:
9d004258:	1000ffd3 	b	9d0041a8 <C999>
9d00425c:	3c02ffc0 	lui	v0,0xffc0

9d004260 <Coveund>:
9d004260:	1ce0fffa 	bgtz	a3,9d00424c <Cinf>
9d004264:	00000000 	nop
9d004268:	240b0001 	li	t3,1
9d00426c:	01675823 	subu	t3,t3,a3
9d004270:	2d610020 	sltiu	at,t3,32
9d004274:	1020fff0 	beqz	at,9d004238 <Czer>
9d004278:	00000000 	nop
9d00427c:	240c0020 	li	t4,32
9d004280:	018b6023 	subu	t4,t4,t3
9d004284:	01863804 	sllv	a3,a2,t4
9d004288:	10e00002 	beqz	a3,9d004294 <i25>
9d00428c:	01663006 	srlv	a2,a2,t3
9d004290:	34c60002 	ori	a2,a2,0x2

9d004294 <i25>:
9d004294:	24070000 	li	a3,0
9d004298:	24cc0080 	addiu	t4,a2,128
9d00429c:	0581ffb7 	bgez	t4,9d00417c <Clab8>
9d0042a0:	00000000 	nop
9d0042a4:	1000ffb5 	b	9d00417c <Clab8>
9d0042a8:	24070001 	li	a3,1
9d0042ac:	00000000 	nop

Disassembly of section .text._outcnvrt:

9d0042b0 <_outcnvrt>:
9d0042b0:	27bdffd8 	addiu	sp,sp,-40
9d0042b4:	afbf0024 	sw	ra,36(sp)
9d0042b8:	afb40020 	sw	s4,32(sp)
9d0042bc:	afb3001c 	sw	s3,28(sp)
9d0042c0:	afb20018 	sw	s2,24(sp)
9d0042c4:	afb10014 	sw	s1,20(sp)
9d0042c8:	afb00010 	sw	s0,16(sp)
9d0042cc:	00809821 	move	s3,a0
9d0042d0:	00a0a021 	move	s4,a1
9d0042d4:	97a20038 	lhu	v0,56(sp)
9d0042d8:	30420008 	andi	v0,v0,0x8
9d0042dc:	00c08021 	move	s0,a2
9d0042e0:	10400014 	beqz	v0,9d004334 <_outcnvrt+0x84>
9d0042e4:	00e08821 	move	s1,a3
9d0042e8:	00a02021 	move	a0,a1
9d0042ec:	00c02821 	move	a1,a2
9d0042f0:	0f4013fa 	jal	9d004fe8 <__sputn>
9d0042f4:	02603021 	move	a2,s3
9d0042f8:	2403ffff 	li	v1,-1
9d0042fc:	10430003 	beq	v0,v1,9d00430c <_outcnvrt+0x5c>
9d004300:	0211902a 	slt	s2,s0,s1
9d004304:	1640001c 	bnez	s2,9d004378 <_outcnvrt+0xc8>
9d004308:	02602021 	move	a0,s3
9d00430c:	02201021 	move	v0,s1
9d004310:	0212100a 	movz	v0,s0,s2
9d004314:	8fbf0024 	lw	ra,36(sp)
9d004318:	8fb40020 	lw	s4,32(sp)
9d00431c:	8fb3001c 	lw	s3,28(sp)
9d004320:	8fb20018 	lw	s2,24(sp)
9d004324:	8fb10014 	lw	s1,20(sp)
9d004328:	8fb00010 	lw	s0,16(sp)
9d00432c:	03e00008 	jr	ra
9d004330:	27bd0028 	addiu	sp,sp,40
9d004334:	00c7902a 	slt	s2,a2,a3
9d004338:	1640001d 	bnez	s2,9d0043b0 <_outcnvrt+0x100>
9d00433c:	00e62823 	subu	a1,a3,a2
9d004340:	02802021 	move	a0,s4
9d004344:	02002821 	move	a1,s0
9d004348:	0f4013fa 	jal	9d004fe8 <__sputn>
9d00434c:	02603021 	move	a2,s3
9d004350:	02201021 	move	v0,s1
9d004354:	0212100a 	movz	v0,s0,s2
9d004358:	8fbf0024 	lw	ra,36(sp)
9d00435c:	8fb40020 	lw	s4,32(sp)
9d004360:	8fb3001c 	lw	s3,28(sp)
9d004364:	8fb20018 	lw	s2,24(sp)
9d004368:	8fb10014 	lw	s1,20(sp)
9d00436c:	8fb00010 	lw	s0,16(sp)
9d004370:	03e00008 	jr	ra
9d004374:	27bd0028 	addiu	sp,sp,40
9d004378:	02302823 	subu	a1,s1,s0
9d00437c:	3c069d00 	lui	a2,0x9d00
9d004380:	0f40130c 	jal	9d004c30 <repl>
9d004384:	24c6512c 	addiu	a2,a2,20780
9d004388:	02201021 	move	v0,s1
9d00438c:	0212100a 	movz	v0,s0,s2
9d004390:	8fbf0024 	lw	ra,36(sp)
9d004394:	8fb40020 	lw	s4,32(sp)
9d004398:	8fb3001c 	lw	s3,28(sp)
9d00439c:	8fb20018 	lw	s2,24(sp)
9d0043a0:	8fb10014 	lw	s1,20(sp)
9d0043a4:	8fb00010 	lw	s0,16(sp)
9d0043a8:	03e00008 	jr	ra
9d0043ac:	27bd0028 	addiu	sp,sp,40
9d0043b0:	3c069d00 	lui	a2,0x9d00
9d0043b4:	0f40130c 	jal	9d004c30 <repl>
9d0043b8:	24c6512c 	addiu	a2,a2,20780
9d0043bc:	2403ffff 	li	v1,-1
9d0043c0:	1443ffdf 	bne	v0,v1,9d004340 <_outcnvrt+0x90>
9d0043c4:	02201021 	move	v0,s1
9d0043c8:	0212100a 	movz	v0,s0,s2
9d0043cc:	8fbf0024 	lw	ra,36(sp)
9d0043d0:	8fb40020 	lw	s4,32(sp)
9d0043d4:	8fb3001c 	lw	s3,28(sp)
9d0043d8:	8fb20018 	lw	s2,24(sp)
9d0043dc:	8fb10014 	lw	s1,20(sp)
9d0043e0:	8fb00010 	lw	s0,16(sp)
9d0043e4:	03e00008 	jr	ra
9d0043e8:	27bd0028 	addiu	sp,sp,40

Disassembly of section .dinit:

9d0043ec <.dinit>:
9d0043ec:	a0000008 	sb	zero,8(zero)
9d0043f0:	00000004 	sllv	zero,zero,zero
9d0043f4:	00000000 	nop
9d0043f8:	a0000010 	sb	zero,16(zero)
9d0043fc:	000000d4 	0xd4
9d004400:	00000001 	movf	zero,zero,$fcc0
9d004404:	a0000074 	sb	zero,116(zero)
9d004408:	a0000090 	sb	zero,144(zero)
9d00440c:	a00000ac 	sb	zero,172(zero)
9d004410:	a0000070 	sb	zero,112(zero)
9d004414:	a00000e4 	sb	zero,228(zero)
9d004418:	00000001 	movf	zero,zero,$fcc0
	...
9d004468:	ffffffff 	sdc3	$31,-1(ra)
9d00446c:	ffffffff 	sdc3	$31,-1(ra)
9d004470:	00000000 	nop
9d004474:	00000040 	ssnop
9d004478:	00001009 	jalr	v0,zero
9d00447c:	00000000 	nop
9d004480:	9d005428 	0x9d005428
9d004484:	ffffffff 	sdc3	$31,-1(ra)
	...
9d004494:	00011002 	srl	v0,at,0x0
9d004498:	00000000 	nop
9d00449c:	9d005428 	0x9d005428
9d0044a0:	ffffffff 	sdc3	$31,-1(ra)
	...
9d0044b0:	00020002 	srl	zero,v0,0x0
9d0044b4:	00000000 	nop
9d0044b8:	9d005428 	0x9d005428
9d0044bc:	fffffffd 	sdc3	$31,-3(ra)
	...
9d0044d8:	a00000e4 	sb	zero,228(zero)
9d0044dc:	00000088 	0x88
9d0044e0:	00000000 	nop
9d0044e4:	a0000000 	sb	zero,0(zero)
9d0044e8:	00000004 	sllv	zero,zero,zero
9d0044ec:	00000001 	movf	zero,zero,$fcc0
9d0044f0:	a0000010 	sb	zero,16(zero)
9d0044f4:	a000000c 	sb	zero,12(zero)
9d0044f8:	00000004 	sllv	zero,zero,zero
9d0044fc:	00000000 	nop
9d004500:	a0000004 	sb	zero,4(zero)
9d004504:	00000004 	sllv	zero,zero,zero
9d004508:	00000001 	movf	zero,zero,$fcc0
9d00450c:	00000002 	srl	zero,zero,0x0
9d004510:	00000000 	nop
9d004514:	22222222 	addi	v0,s1,8738
9d004518:	22222222 	addi	v0,s1,8738

Disassembly of section .text:

9d00451c <encoder_command>:
#include "encoder.h"                   
#include <xc.h>

static int encoder_command(int read) { // send a command to the encoder chip
                                       // 0 = reset count to 32,768, 1 = return the count
  SPI4BUF = read;                      // send the command
9d00451c:	3c02bf80 	lui	v0,0xbf80
9d004520:	ac445c20 	sw	a0,23584(v0)
  while (!SPI4STATbits.SPIRBF) { ; }   // wait for the response
9d004524:	3c03bf80 	lui	v1,0xbf80
9d004528:	8c625c10 	lw	v0,23568(v1)
9d00452c:	30420001 	andi	v0,v0,0x1
9d004530:	1040fffd 	beqz	v0,9d004528 <encoder_command+0xc>
9d004534:	3c02bf80 	lui	v0,0xbf80
  SPI4BUF;                             // garbage was transferred, ignore it
9d004538:	8c435c20 	lw	v1,23584(v0)
  SPI4BUF = 5;                         // write garbage, but the read will have the data
9d00453c:	24030005 	li	v1,5
9d004540:	ac435c20 	sw	v1,23584(v0)
  while (!SPI4STATbits.SPIRBF) { ; }
9d004544:	3c03bf80 	lui	v1,0xbf80
9d004548:	8c625c10 	lw	v0,23568(v1)
9d00454c:	30420001 	andi	v0,v0,0x1
9d004550:	1040fffd 	beqz	v0,9d004548 <encoder_command+0x2c>
9d004554:	3c02bf80 	lui	v0,0xbf80
  return SPI4BUF;
9d004558:	8c425c20 	lw	v0,23584(v0)
}
9d00455c:	03e00008 	jr	ra
9d004560:	00000000 	nop

9d004564 <encoder_counts>:

int encoder_counts(void) {
9d004564:	27bdffe8 	addiu	sp,sp,-24
9d004568:	afbf0014 	sw	ra,20(sp)
  return encoder_command(1);
9d00456c:	0f401147 	jal	9d00451c <encoder_command>
9d004570:	24040001 	li	a0,1

9d004574 <.LVL1>:
}
9d004574:	8fbf0014 	lw	ra,20(sp)
9d004578:	03e00008 	jr	ra
9d00457c:	27bd0018 	addiu	sp,sp,24

9d004580 <encoder_reset>:

int encoder_reset(void) {
9d004580:	27bdffe8 	addiu	sp,sp,-24
9d004584:	afbf0014 	sw	ra,20(sp)
  return encoder_command(0);
9d004588:	0f401147 	jal	9d00451c <encoder_command>
9d00458c:	00002021 	move	a0,zero

9d004590 <.LVL2>:
}
9d004590:	8fbf0014 	lw	ra,20(sp)
9d004594:	03e00008 	jr	ra
9d004598:	27bd0018 	addiu	sp,sp,24

9d00459c <encoder_init>:

void encoder_init(void) {
  // SPI initialization for reading from the decoder chip
  SPI4CON = 0;              // stop and reset SPI4
9d00459c:	3c02bf80 	lui	v0,0xbf80
9d0045a0:	ac405c00 	sw	zero,23552(v0)
  SPI4BUF;                  // read to clear the rx receive buffer
9d0045a4:	3c02bf80 	lui	v0,0xbf80
9d0045a8:	8c425c20 	lw	v0,23584(v0)
  SPI4BRG = 0x4;            // bit rate to 8 MHz, SPI4BRG = 80000000/(2*desired)-1
9d0045ac:	24030004 	li	v1,4
9d0045b0:	3c02bf80 	lui	v0,0xbf80
9d0045b4:	ac435c30 	sw	v1,23600(v0)
  SPI4STATbits.SPIROV = 0;  // clear the overflow
9d0045b8:	3c02bf80 	lui	v0,0xbf80
9d0045bc:	8c435c10 	lw	v1,23568(v0)
9d0045c0:	7c033184 	ins	v1,zero,0x6,0x1
9d0045c4:	ac435c10 	sw	v1,23568(v0)
  SPI4CONbits.MSTEN = 1;    // master mode
9d0045c8:	3c02bf80 	lui	v0,0xbf80
9d0045cc:	8c445c00 	lw	a0,23552(v0)
9d0045d0:	24030001 	li	v1,1
9d0045d4:	7c642944 	ins	a0,v1,0x5,0x1
9d0045d8:	ac445c00 	sw	a0,23552(v0)
  SPI4CONbits.MSSEN = 1;    // slave select enable
9d0045dc:	8c445c00 	lw	a0,23552(v0)
9d0045e0:	7c64e704 	ins	a0,v1,0x1c,0x1
9d0045e4:	ac445c00 	sw	a0,23552(v0)
  SPI4CONbits.MODE16 = 1;   // 16 bit mode
9d0045e8:	8c445c00 	lw	a0,23552(v0)
9d0045ec:	7c645284 	ins	a0,v1,0xa,0x1
9d0045f0:	ac445c00 	sw	a0,23552(v0)
  SPI4CONbits.MODE32 = 0; 
9d0045f4:	8c445c00 	lw	a0,23552(v0)
9d0045f8:	7c045ac4 	ins	a0,zero,0xb,0x1
9d0045fc:	ac445c00 	sw	a0,23552(v0)
  SPI4CONbits.SMP = 1;      // sample at the end of the clock
9d004600:	8c445c00 	lw	a0,23552(v0)
9d004604:	7c644a44 	ins	a0,v1,0x9,0x1
9d004608:	ac445c00 	sw	a0,23552(v0)
  SPI4CONbits.ON = 1;       // turn SPI on
9d00460c:	8c445c00 	lw	a0,23552(v0)
9d004610:	7c647bc4 	ins	a0,v1,0xf,0x1
9d004614:	ac445c00 	sw	a0,23552(v0)
9d004618:	03e00008 	jr	ra
9d00461c:	00000000 	nop

Disassembly of section .text.dptofp:

9d004620 <__truncdfsf2>:
9d004620:	00053ac0 00045d42 00eb3825 000432c0     .:..B]..%8...2..
9d004630:	3c018000 00e13825 3c018000 00a14824     ...<%8.....<$H..
9d004640:	00054040 00084542 2508fc80 250bffff     @@..BE.....%...%
9d004650:	2d6100fe 10200012 00000000              ..a-.. .....

9d00465c <Hlab1>:
9d00465c:	10c00002 	beqz	a2,9d004668 <i45>
9d004660:	00000000 	nop
9d004664:	34e70001 	ori	a3,a3,0x1

9d004668 <i45>:
9d004668:	24e70080 	addiu	a3,a3,128
9d00466c:	2ceb0080 	sltiu	t3,a3,128
9d004670:	010b4021 	addu	t0,t0,t3
9d004674:	00075a02 	srl	t3,a3,0x8
9d004678:	316b0001 	andi	t3,t3,0x1
9d00467c:	00eb3823 	subu	a3,a3,t3
9d004680:	00073840 	sll	a3,a3,0x1
9d004684:	00073a42 	srl	a3,a3,0x9
9d004688:	00085dc0 	sll	t3,t0,0x17
9d00468c:	00eb3825 	or	a3,a3,t3
9d004690:	00e91025 	or	v0,a3,t1

9d004694 <H999>:
9d004694:	03e00008 	jr	ra
9d004698:	00000000 	nop
9d00469c:	00000000 	nop

9d0046a0 <Hspec>:
9d0046a0:	2401047f 	li	at,1151
9d0046a4:	15010007 	bne	t0,at,9d0046c4 <i46>
9d0046a8:	00000000 	nop
9d0046ac:	00075840 	sll	t3,a3,0x1
9d0046b0:	01665825 	or	t3,t3,a2
9d0046b4:	11600003 	beqz	t3,9d0046c4 <i46>
9d0046b8:	00000000 	nop
9d0046bc:	1000fff5 	b	9d004694 <H999>
9d0046c0:	3c02ffc0 	lui	v0,0xffc0

9d0046c4 <i46>:
9d0046c4:	290100ff 	slti	at,t0,255
9d0046c8:	14200004 	bnez	at,9d0046dc <i48>
9d0046cc:	00000000 	nop
9d0046d0:	3c017f80 	lui	at,0x7f80
9d0046d4:	1000ffef 	b	9d004694 <H999>
9d0046d8:	01211025 	or	v0,t1,at

9d0046dc <i48>:
9d0046dc:	240a0001 	li	t2,1
9d0046e0:	01485023 	subu	t2,t2,t0
9d0046e4:	2d410020 	sltiu	at,t2,32
9d0046e8:	14200003 	bnez	at,9d0046f8 <i49>
9d0046ec:	00000000 	nop
9d0046f0:	1000ffe8 	b	9d004694 <H999>
9d0046f4:	00091025 	or	v0,zero,t1

9d0046f8 <i49>:
9d0046f8:	240c0020 	li	t4,32
9d0046fc:	018a6023 	subu	t4,t4,t2
9d004700:	01875804 	sllv	t3,a3,t4
9d004704:	00cb3025 	or	a2,a2,t3
9d004708:	01473806 	srlv	a3,a3,t2
9d00470c:	24080000 	li	t0,0
9d004710:	3c018000 	lui	at,0x8000
9d004714:	1000ffd1 	b	9d00465c <Hlab1>
9d004718:	00e13825 	or	a3,a3,at
9d00471c:	00000000 	nop

Disassembly of section .text._flsbuf_simple:

9d004720 <_flsbuf_simple>:
9d004720:	27bdffd8 	addiu	sp,sp,-40
9d004724:	afbf0024 	sw	ra,36(sp)
9d004728:	afb10020 	sw	s1,32(sp)
9d00472c:	afb0001c 	sw	s0,28(sp)
9d004730:	00a08021 	move	s0,a1
9d004734:	8ca2000c 	lw	v0,12(a1)
9d004738:	1040002d 	beqz	v0,9d0047f0 <_flsbuf_simple+0xd0>
9d00473c:	00808821 	move	s1,a0
9d004740:	8ca20000 	lw	v0,0(a1)
9d004744:	24420001 	addiu	v0,v0,1
9d004748:	2403ffff 	li	v1,-1
9d00474c:	1043001e 	beq	v0,v1,9d0047c8 <_flsbuf_simple+0xa8>
9d004750:	aca20000 	sw	v0,0(a1)
9d004754:	0f40137f 	jal	9d004dfc <_fflush_simple>
9d004758:	02002021 	move	a0,s0
9d00475c:	8e040000 	lw	a0,0(s0)
9d004760:	8e020004 	lw	v0,4(s0)
9d004764:	2484ffff 	addiu	a0,a0,-1
9d004768:	24430001 	addiu	v1,v0,1
9d00476c:	ae040000 	sw	a0,0(s0)
9d004770:	ae030004 	sw	v1,4(s0)
9d004774:	a0510000 	sb	s1,0(v0)
9d004778:	2402000a 	li	v0,10
9d00477c:	52220007 	beql	s1,v0,9d00479c <_flsbuf_simple+0x7c>
9d004780:	96020010 	lhu	v0,16(s0)
9d004784:	02201021 	move	v0,s1
9d004788:	8fbf0024 	lw	ra,36(sp)
9d00478c:	8fb10020 	lw	s1,32(sp)
9d004790:	8fb0001c 	lw	s0,28(sp)
9d004794:	03e00008 	jr	ra
9d004798:	27bd0028 	addiu	sp,sp,40
9d00479c:	30420008 	andi	v0,v0,0x8
9d0047a0:	1040fff9 	beqz	v0,9d004788 <_flsbuf_simple+0x68>
9d0047a4:	02201021 	move	v0,s1
9d0047a8:	0f40137f 	jal	9d004dfc <_fflush_simple>
9d0047ac:	02002021 	move	a0,s0
9d0047b0:	02201021 	move	v0,s1
9d0047b4:	8fbf0024 	lw	ra,36(sp)
9d0047b8:	8fb10020 	lw	s1,32(sp)
9d0047bc:	8fb0001c 	lw	s0,28(sp)
9d0047c0:	03e00008 	jr	ra
9d0047c4:	27bd0028 	addiu	sp,sp,40
9d0047c8:	8ca20008 	lw	v0,8(a1)
9d0047cc:	1440ffe1 	bnez	v0,9d004754 <_flsbuf_simple+0x34>
9d0047d0:	00000000 	nop
9d0047d4:	94a20010 	lhu	v0,16(a1)
9d0047d8:	aca00004 	sw	zero,4(a1)
9d0047dc:	aca0000c 	sw	zero,12(a1)
9d0047e0:	34420010 	ori	v0,v0,0x10
9d0047e4:	aca00000 	sw	zero,0(a1)
9d0047e8:	0b4011d5 	j	9d004754 <_flsbuf_simple+0x34>
9d0047ec:	a4a20010 	sh	v0,16(a1)
9d0047f0:	27a40010 	addiu	a0,sp,16
9d0047f4:	24050001 	li	a1,1
9d0047f8:	0f401469 	jal	9d0051a4 <.LFE0>
9d0047fc:	a3b10010 	sb	s1,16(sp)
9d004800:	ae000000 	sw	zero,0(s0)
9d004804:	02201021 	move	v0,s1
9d004808:	8fbf0024 	lw	ra,36(sp)
9d00480c:	8fb10020 	lw	s1,32(sp)
9d004810:	8fb0001c 	lw	s0,28(sp)
9d004814:	03e00008 	jr	ra
9d004818:	27bd0028 	addiu	sp,sp,40

Disassembly of section .text._mon_getc:

9d00481c <_mon_getc>:
9d00481c:	27bdffe8 	addiu	sp,sp,-24

9d004820 <.LCFI0>:
9d004820:	afbf0014 	sw	ra,20(sp)
9d004824:	3c02a000 	lui	v0,0xa000
9d004828:	8c420004 	lw	v0,4(v0)
9d00482c:	1440000a 	bnez	v0,9d004858 <.LCFI0+0x38>
9d004830:	24030002 	li	v1,2
9d004834:	3c020000 	lui	v0,0x0
9d004838:	24420000 	addiu	v0,v0,0
9d00483c:	10400029 	beqz	v0,9d0048e4 <.LCFI0+0xc4>
9d004840:	3c020000 	lui	v0,0x0
9d004844:	0c000000 	jal	90000000 <_bmxdudba_address+0x8ffe0000>
9d004848:	00000000 	nop
9d00484c:	8fbf0014 	lw	ra,20(sp)
9d004850:	03e00008 	jr	ra
9d004854:	27bd0018 	addiu	sp,sp,24
9d004858:	1043001c 	beq	v0,v1,9d0048cc <.LCFI0+0xac>
9d00485c:	3c02bf80 	lui	v0,0xbf80
9d004860:	3c02bf80 	lui	v0,0xbf80
9d004864:	8c426000 	lw	v0,24576(v0)
9d004868:	3c05bf80 	lui	a1,0xbf80
9d00486c:	24a56030 	addiu	a1,a1,24624
9d004870:	3c04bf80 	lui	a0,0xbf80
9d004874:	24846010 	addiu	a0,a0,24592
9d004878:	30428000 	andi	v0,v0,0x8000
9d00487c:	14400003 	bnez	v0,9d00488c <.LCFI0+0x6c>
9d004880:	34038000 	li	v1,0x8000
9d004884:	3c02bf80 	lui	v0,0xbf80
9d004888:	ac436008 	sw	v1,24584(v0)
9d00488c:	8c820000 	lw	v0,0(a0)
9d004890:	30420001 	andi	v0,v0,0x1
9d004894:	14400009 	bnez	v0,9d0048bc <.LCFI0+0x9c>
9d004898:	240200a0 	li	v0,160
9d00489c:	0b40122b 	j	9d0048ac <.LCFI0+0x8c>
9d0048a0:	00000000 	nop
9d0048a4:	10400005 	beqz	v0,9d0048bc <.LCFI0+0x9c>
9d0048a8:	00000000 	nop
9d0048ac:	8c830000 	lw	v1,0(a0)
9d0048b0:	30630001 	andi	v1,v1,0x1
9d0048b4:	1060fffb 	beqz	v1,9d0048a4 <.LCFI0+0x84>
9d0048b8:	2442ffff 	addiu	v0,v0,-1
9d0048bc:	8ca20000 	lw	v0,0(a1)
9d0048c0:	8fbf0014 	lw	ra,20(sp)
9d0048c4:	03e00008 	jr	ra
9d0048c8:	27bd0018 	addiu	sp,sp,24
9d0048cc:	8c426800 	lw	v0,26624(v0)
9d0048d0:	3c05bf80 	lui	a1,0xbf80
9d0048d4:	24a56830 	addiu	a1,a1,26672
9d0048d8:	3c04bf80 	lui	a0,0xbf80
9d0048dc:	0b40121e 	j	9d004878 <.LCFI0+0x58>
9d0048e0:	24846810 	addiu	a0,a0,26640
9d0048e4:	24420000 	addiu	v0,v0,0
9d0048e8:	5040ffde 	beqzl	v0,9d004864 <.LCFI0+0x44>
9d0048ec:	3c02bf80 	lui	v0,0xbf80
9d0048f0:	0c000000 	jal	90000000 <_bmxdudba_address+0x8ffe0000>
9d0048f4:	00000000 	nop
9d0048f8:	0b401214 	j	9d004850 <.LCFI0+0x30>
9d0048fc:	8fbf0014 	lw	ra,20(sp)

Disassembly of section .text.general_exception:

9d004900 <_general_exception_context>:
9d004900:	27bdffa8 	addiu	sp,sp,-88
9d004904:	afa10004 	sw	at,4(sp)
9d004908:	afa20008 	sw	v0,8(sp)
9d00490c:	afa3000c 	sw	v1,12(sp)
9d004910:	afa40010 	sw	a0,16(sp)
9d004914:	afa50014 	sw	a1,20(sp)
9d004918:	afa60018 	sw	a2,24(sp)
9d00491c:	afa7001c 	sw	a3,28(sp)
9d004920:	afa80020 	sw	t0,32(sp)
9d004924:	afa90024 	sw	t1,36(sp)
9d004928:	afaa0028 	sw	t2,40(sp)
9d00492c:	afab002c 	sw	t3,44(sp)
9d004930:	afac0030 	sw	t4,48(sp)
9d004934:	afad0034 	sw	t5,52(sp)
9d004938:	afae0038 	sw	t6,56(sp)
9d00493c:	afaf003c 	sw	t7,60(sp)
9d004940:	afb80040 	sw	t8,64(sp)
9d004944:	afb90044 	sw	t9,68(sp)
9d004948:	afbf0048 	sw	ra,72(sp)
9d00494c:	00004012 	mflo	t0
9d004950:	afa8004c 	sw	t0,76(sp)
9d004954:	00004010 	mfhi	t0
9d004958:	afa80050 	sw	t0,80(sp)
9d00495c:	3c1a9d00 	lui	k0,0x9d00
9d004960:	275a5238 	addiu	k0,k0,21048
9d004964:	00000000 	nop
9d004968:	40046800 	mfc0	a0,c0_cause
9d00496c:	40056000 	mfc0	a1,c0_status
9d004970:	0340f809 	jalr	k0
9d004974:	00000000 	nop
9d004978:	8fa80050 	lw	t0,80(sp)
9d00497c:	01000011 	mthi	t0
9d004980:	8fa8004c 	lw	t0,76(sp)
9d004984:	01000013 	mtlo	t0
9d004988:	8fa10004 	lw	at,4(sp)
9d00498c:	8fa20008 	lw	v0,8(sp)
9d004990:	8fa3000c 	lw	v1,12(sp)
9d004994:	8fa40010 	lw	a0,16(sp)
9d004998:	8fa50014 	lw	a1,20(sp)
9d00499c:	8fa60018 	lw	a2,24(sp)
9d0049a0:	8fa7001c 	lw	a3,28(sp)
9d0049a4:	8fa80020 	lw	t0,32(sp)
9d0049a8:	8fa90024 	lw	t1,36(sp)
9d0049ac:	8faa0028 	lw	t2,40(sp)
9d0049b0:	8fab002c 	lw	t3,44(sp)
9d0049b4:	8fac0030 	lw	t4,48(sp)
9d0049b8:	8fad0034 	lw	t5,52(sp)
9d0049bc:	8fae0038 	lw	t6,56(sp)
9d0049c0:	8faf003c 	lw	t7,60(sp)
9d0049c4:	8fb80040 	lw	t8,64(sp)
9d0049c8:	8fb90044 	lw	t9,68(sp)
9d0049cc:	8fbf0048 	lw	ra,72(sp)
9d0049d0:	27bd0058 	addiu	sp,sp,88
9d0049d4:	000000c0 	ehb
9d0049d8:	42000018 	eret

Disassembly of section .text.libm:

9d0049dc <fpmodf>:
9d0049dc:	00043dc2 30e700ff 3c088000 00043200     .=.....0...<.2..
9d0049ec:	00c83025 01044024 240100ff 10e10028     %0..$@.....$(...
9d0049fc:	00000000 00064825 00075025 00085825     ....%H..%P..%X..
9d004a0c:	240c009e 01876023 19800006 00000000     ...$#`..........
9d004a1c:	29810020 1020001c 00000000 01894806      ..).. ......H..
9d004a2c:	01894804                                .H..

9d004a30 <Dlab3>:
9d004a30:	00096040 	sll	t4,t1,0x1
9d004a34:	000c6242 	srl	t4,t4,0x9
9d004a38:	000a6dc0 	sll	t5,t2,0x17
9d004a3c:	018d6025 	or	t4,t4,t5
9d004a40:	018b6825 	or	t5,t4,t3
9d004a44:	acad0000 	sw	t5,0(a1)
9d004a48:	00ea6023 	subu	t4,a3,t2
9d004a4c:	2d810020 	sltiu	at,t4,32
9d004a50:	14200002 	bnez	at,9d004a5c <L2>
9d004a54:	00000000 	nop
9d004a58:	34090000 	li	t1,0x0

9d004a5c <L2>:
9d004a5c:	01894806 	srlv	t1,t1,t4
9d004a60:	00c93023 	subu	a2,a2,t1
9d004a64:	10c00008 	beqz	a2,9d004a88 <Dret2>
9d004a68:	00000000 	nop
9d004a6c:	70cc6020 	clz	t4,a2
9d004a70:	00ec3823 	subu	a3,a3,t4
9d004a74:	01863004 	sllv	a2,a2,t4

9d004a78 <Dret>:
9d004a78:	00063040 	sll	a2,a2,0x1
9d004a7c:	00063242 	srl	a2,a2,0x9
9d004a80:	00076dc0 	sll	t5,a3,0x17
9d004a84:	00cd3025 	or	a2,a2,t5

9d004a88 <Dret2>:
9d004a88:	00c81025 	or	v0,a2,t0

9d004a8c <D999>:
9d004a8c:	03e00008 	jr	ra
9d004a90:	00000000 	nop

9d004a94 <Dzer>:
9d004a94:	1000fff8 	b	9d004a78 <Dret>
9d004a98:	aca80000 	sw	t0,0(a1)

9d004a9c <Dinfnan>:
9d004a9c:	3c04ffc0 	lui	a0,0xffc0
9d004aa0:	aca40000 	sw	a0,0(a1)
9d004aa4:	1000fff9 	b	9d004a8c <D999>
9d004aa8:	00041025 	or	v0,zero,a0
9d004aac:	00000000 	nop

Disassembly of section .text._mon_putc:

9d004ab0 <_mon_putc>:
9d004ab0:	27bdffe8 	addiu	sp,sp,-24

9d004ab4 <.LCFI0>:
9d004ab4:	afbf0014 	sw	ra,20(sp)
9d004ab8:	3c02a000 	lui	v0,0xa000
9d004abc:	8c420004 	lw	v0,4(v0)
9d004ac0:	1440000a 	bnez	v0,9d004aec <.LCFI0+0x38>
9d004ac4:	00802821 	move	a1,a0
9d004ac8:	3c020000 	lui	v0,0x0
9d004acc:	24420000 	addiu	v0,v0,0
9d004ad0:	10400025 	beqz	v0,9d004b68 <.LCFI0+0xb4>
9d004ad4:	3c020000 	lui	v0,0x0
9d004ad8:	0c000000 	jal	90000000 <_bmxdudba_address+0x8ffe0000>
9d004adc:	00000000 	nop
9d004ae0:	8fbf0014 	lw	ra,20(sp)
9d004ae4:	03e00008 	jr	ra
9d004ae8:	27bd0018 	addiu	sp,sp,24
9d004aec:	24030001 	li	v1,1
9d004af0:	10430015 	beq	v0,v1,9d004b48 <.LCFI0+0x94>
9d004af4:	3c04bf80 	lui	a0,0xbf80
9d004af8:	3c04bf80 	lui	a0,0xbf80
9d004afc:	24846820 	addiu	a0,a0,26656
9d004b00:	3c02bf80 	lui	v0,0xbf80
9d004b04:	24426818 	addiu	v0,v0,26648
9d004b08:	3c06bf80 	lui	a2,0xbf80
9d004b0c:	24c66808 	addiu	a2,a2,26632
9d004b10:	3c03bf80 	lui	v1,0xbf80
9d004b14:	24636810 	addiu	v1,v1,26640
9d004b18:	34078000 	li	a3,0x8000
9d004b1c:	acc70000 	sw	a3,0(a2)
9d004b20:	24060400 	li	a2,1024
9d004b24:	ac460000 	sw	a2,0(v0)
9d004b28:	8c620000 	lw	v0,0(v1)
9d004b2c:	30420100 	andi	v0,v0,0x100
9d004b30:	1040fffd 	beqz	v0,9d004b28 <.LCFI0+0x74>
9d004b34:	00000000 	nop
9d004b38:	ac850000 	sw	a1,0(a0)
9d004b3c:	8fbf0014 	lw	ra,20(sp)
9d004b40:	03e00008 	jr	ra
9d004b44:	27bd0018 	addiu	sp,sp,24
9d004b48:	24846020 	addiu	a0,a0,24608
9d004b4c:	3c02bf80 	lui	v0,0xbf80
9d004b50:	24426018 	addiu	v0,v0,24600
9d004b54:	3c06bf80 	lui	a2,0xbf80
9d004b58:	24c66008 	addiu	a2,a2,24584
9d004b5c:	3c03bf80 	lui	v1,0xbf80
9d004b60:	0b4012c6 	j	9d004b18 <.LCFI0+0x64>
9d004b64:	24636010 	addiu	v1,v1,24592
9d004b68:	24420000 	addiu	v0,v0,0
9d004b6c:	5040ffe3 	beqzl	v0,9d004afc <.LCFI0+0x48>
9d004b70:	3c04bf80 	lui	a0,0xbf80
9d004b74:	0c000000 	jal	90000000 <_bmxdudba_address+0x8ffe0000>
9d004b78:	00000000 	nop
9d004b7c:	0b4012b9 	j	9d004ae4 <.LCFI0+0x30>
9d004b80:	8fbf0014 	lw	ra,20(sp)

Disassembly of section .text.fputc:

9d004b84 <fputc>:
9d004b84:	27bdffe0 	addiu	sp,sp,-32
9d004b88:	afbf001c 	sw	ra,28(sp)
9d004b8c:	afb10018 	sw	s1,24(sp)
9d004b90:	afb00014 	sw	s0,20(sp)
9d004b94:	00a08021 	move	s0,a1
9d004b98:	8ca20018 	lw	v0,24(a1)
9d004b9c:	00808821 	move	s1,a0
9d004ba0:	24050001 	li	a1,1
9d004ba4:	8c420010 	lw	v0,16(v0)
9d004ba8:	0040f809 	jalr	v0
9d004bac:	02002021 	move	a0,s0
9d004bb0:	1040000e 	beqz	v0,9d004bec <fputc+0x68>
9d004bb4:	2402ffff 	li	v0,-1
9d004bb8:	8e020000 	lw	v0,0(s0)
9d004bbc:	2442ffff 	addiu	v0,v0,-1
9d004bc0:	04400011 	bltz	v0,9d004c08 <fputc+0x84>
9d004bc4:	ae020000 	sw	v0,0(s0)
9d004bc8:	96020010 	lhu	v0,16(s0)
9d004bcc:	30420008 	andi	v0,v0,0x8
9d004bd0:	1440000b 	bnez	v0,9d004c00 <fputc+0x7c>
9d004bd4:	2402000a 	li	v0,10
9d004bd8:	8e030004 	lw	v1,4(s0)
9d004bdc:	02201021 	move	v0,s1
9d004be0:	24640001 	addiu	a0,v1,1
9d004be4:	ae040004 	sw	a0,4(s0)
9d004be8:	a0710000 	sb	s1,0(v1)
9d004bec:	8fbf001c 	lw	ra,28(sp)
9d004bf0:	8fb10018 	lw	s1,24(sp)
9d004bf4:	8fb00014 	lw	s0,20(sp)
9d004bf8:	03e00008 	jr	ra
9d004bfc:	27bd0020 	addiu	sp,sp,32
9d004c00:	5622fff6 	bnel	s1,v0,9d004bdc <fputc+0x58>
9d004c04:	8e030004 	lw	v1,4(s0)
9d004c08:	8e020018 	lw	v0,24(s0)
9d004c0c:	02202021 	move	a0,s1
9d004c10:	8c420004 	lw	v0,4(v0)
9d004c14:	0040f809 	jalr	v0
9d004c18:	02002821 	move	a1,s0
9d004c1c:	8fbf001c 	lw	ra,28(sp)
9d004c20:	8fb10018 	lw	s1,24(sp)
9d004c24:	8fb00014 	lw	s0,20(sp)
9d004c28:	03e00008 	jr	ra
9d004c2c:	27bd0020 	addiu	sp,sp,32

Disassembly of section .text.repl:

9d004c30 <repl>:
9d004c30:	27bdffd8 	addiu	sp,sp,-40
9d004c34:	afbf0024 	sw	ra,36(sp)
9d004c38:	afb40020 	sw	s4,32(sp)
9d004c3c:	afb3001c 	sw	s3,28(sp)
9d004c40:	afb20018 	sw	s2,24(sp)
9d004c44:	afb10014 	sw	s1,20(sp)
9d004c48:	afb00010 	sw	s0,16(sp)
9d004c4c:	00a08021 	move	s0,a1
9d004c50:	0080a021 	move	s4,a0
9d004c54:	00c09821 	move	s3,a2
9d004c58:	24120020 	li	s2,32
9d004c5c:	2411ffff 	li	s1,-1
9d004c60:	12000011 	beqz	s0,9d004ca8 <repl+0x78>
9d004c64:	2e020021 	sltiu	v0,s0,33
9d004c68:	02401821 	move	v1,s2
9d004c6c:	0202180b 	movn	v1,s0,v0
9d004c70:	02602021 	move	a0,s3
9d004c74:	00602821 	move	a1,v1
9d004c78:	02803021 	move	a2,s4
9d004c7c:	0f4013fa 	jal	9d004fe8 <__sputn>
9d004c80:	02038023 	subu	s0,s0,v1
9d004c84:	1451fff6 	bne	v0,s1,9d004c60 <repl+0x30>
9d004c88:	8fbf0024 	lw	ra,36(sp)
9d004c8c:	8fb40020 	lw	s4,32(sp)
9d004c90:	8fb3001c 	lw	s3,28(sp)
9d004c94:	8fb20018 	lw	s2,24(sp)
9d004c98:	8fb10014 	lw	s1,20(sp)
9d004c9c:	8fb00010 	lw	s0,16(sp)
9d004ca0:	03e00008 	jr	ra
9d004ca4:	27bd0028 	addiu	sp,sp,40
9d004ca8:	00001021 	move	v0,zero
9d004cac:	8fbf0024 	lw	ra,36(sp)
9d004cb0:	8fb40020 	lw	s4,32(sp)
9d004cb4:	8fb3001c 	lw	s3,28(sp)
9d004cb8:	8fb20018 	lw	s2,24(sp)
9d004cbc:	8fb10014 	lw	s1,20(sp)
9d004cc0:	8fb00010 	lw	s0,16(sp)
9d004cc4:	03e00008 	jr	ra
9d004cc8:	27bd0028 	addiu	sp,sp,40

Disassembly of section .text.fpcmp:

9d004ccc <__eqsf2>:
9d004ccc:	2408fffe 00043040 00053840 00c74825     ...$@0..@8..%H..
9d004cdc:	1120001b 00000000 3c01ff00 34210001     .. ........<..!4
9d004cec:	00c1082b 1020001a 00000000 3c01ff00     +..... ........<
9d004cfc:	34210001 00e1082b 10200015 00000000     ..!4+..... .....
9d004d0c:	04810002 00063042 00063023              ....B0..#0..

9d004d18 <i48>:
9d004d18:	04a10002 	bgez	a1,9d004d24 <i49>
9d004d1c:	00073842 	srl	a3,a3,0x1
9d004d20:	00073823 	negu	a3,a3

9d004d24 <i49>:
9d004d24:	00c7082a 	slt	at,a2,a3
9d004d28:	10200003 	beqz	at,9d004d38 <i50>
9d004d2c:	00000000 	nop
9d004d30:	10000007 	b	9d004d50 <J999>
9d004d34:	2402ffff 	li	v0,-1

9d004d38 <i50>:
9d004d38:	00e6082a 	slt	at,a3,a2
9d004d3c:	10200003 	beqz	at,9d004d4c <Jequ>
9d004d40:	00000000 	nop
9d004d44:	10000002 	b	9d004d50 <J999>
9d004d48:	24020001 	li	v0,1

9d004d4c <Jequ>:
9d004d4c:	24020000 	li	v0,0

9d004d50 <J999>:
9d004d50:	03e00008 	jr	ra
9d004d54:	00000000 	nop
9d004d58:	00000000 	nop

9d004d5c <Jnan>:
9d004d5c:	1000fffc 	b	9d004d50 <J999>
9d004d60:	00081025 	or	v0,zero,t0
9d004d64:	00000000 	nop

Disassembly of section .text.strlen:

9d004d68 <strlen>:
9d004d68:	30830003 	andi	v1,a0,0x3
9d004d6c:	1460001e 	bnez	v1,9d004de8 <strlen+0x80>
9d004d70:	00801021 	move	v0,a0
9d004d74:	8c820000 	lw	v0,0(a0)
9d004d78:	3c07fefe 	lui	a3,0xfefe
9d004d7c:	34e7feff 	ori	a3,a3,0xfeff
9d004d80:	00471821 	addu	v1,v0,a3
9d004d84:	00021027 	nor	v0,zero,v0
9d004d88:	3c068080 	lui	a2,0x8080
9d004d8c:	34c68080 	ori	a2,a2,0x8080
9d004d90:	00621824 	and	v1,v1,v0
9d004d94:	00661824 	and	v1,v1,a2
9d004d98:	14600013 	bnez	v1,9d004de8 <strlen+0x80>
9d004d9c:	00801021 	move	v0,a0
9d004da0:	24420004 	addiu	v0,v0,4
9d004da4:	8c430000 	lw	v1,0(v0)
9d004da8:	00672821 	addu	a1,v1,a3
9d004dac:	00031827 	nor	v1,zero,v1
9d004db0:	00a31824 	and	v1,a1,v1
9d004db4:	00661824 	and	v1,v1,a2
9d004db8:	5460000c 	bnezl	v1,9d004dec <strlen+0x84>
9d004dbc:	80430000 	lb	v1,0(v0)
9d004dc0:	24420004 	addiu	v0,v0,4
9d004dc4:	8c430000 	lw	v1,0(v0)
9d004dc8:	00672821 	addu	a1,v1,a3
9d004dcc:	00031827 	nor	v1,zero,v1
9d004dd0:	00a31824 	and	v1,a1,v1
9d004dd4:	00661824 	and	v1,v1,a2
9d004dd8:	5060fff2 	beqzl	v1,9d004da4 <strlen+0x3c>
9d004ddc:	24420004 	addiu	v0,v0,4
9d004de0:	0b40137b 	j	9d004dec <strlen+0x84>
9d004de4:	80430000 	lb	v1,0(v0)
9d004de8:	80430000 	lb	v1,0(v0)
9d004dec:	5460fffe 	bnezl	v1,9d004de8 <strlen+0x80>
9d004df0:	24420001 	addiu	v0,v0,1
9d004df4:	03e00008 	jr	ra
9d004df8:	00441023 	subu	v0,v0,a0

Disassembly of section .text._fflush_simple:

9d004dfc <_fflush_simple>:
9d004dfc:	27bdffe8 	addiu	sp,sp,-24
9d004e00:	afbf0014 	sw	ra,20(sp)
9d004e04:	afb00010 	sw	s0,16(sp)
9d004e08:	94820010 	lhu	v0,16(a0)
9d004e0c:	30420002 	andi	v0,v0,0x2
9d004e10:	10400013 	beqz	v0,9d004e60 <_fflush_simple+0x64>
9d004e14:	00808021 	move	s0,a0
9d004e18:	8c850000 	lw	a1,0(a0)
9d004e1c:	04a0000c 	bltz	a1,9d004e50 <_fflush_simple+0x54>
9d004e20:	00001021 	move	v0,zero
9d004e24:	8c82000c 	lw	v0,12(a0)
9d004e28:	50a20006 	beql	a1,v0,9d004e44 <_fflush_simple+0x48>
9d004e2c:	8e030008 	lw	v1,8(s0)
9d004e30:	8c840008 	lw	a0,8(a0)
9d004e34:	0f401469 	jal	9d0051a4 <.LFE0>
9d004e38:	00452823 	subu	a1,v0,a1
9d004e3c:	8e02000c 	lw	v0,12(s0)
9d004e40:	8e030008 	lw	v1,8(s0)
9d004e44:	ae020000 	sw	v0,0(s0)
9d004e48:	ae030004 	sw	v1,4(s0)
9d004e4c:	00001021 	move	v0,zero
9d004e50:	8fbf0014 	lw	ra,20(sp)
9d004e54:	8fb00010 	lw	s0,16(sp)
9d004e58:	03e00008 	jr	ra
9d004e5c:	27bd0018 	addiu	sp,sp,24
9d004e60:	2402ffff 	li	v0,-1
9d004e64:	ac820004 	sw	v0,4(a0)
9d004e68:	00001021 	move	v0,zero
9d004e6c:	8fbf0014 	lw	ra,20(sp)
9d004e70:	8fb00010 	lw	s0,16(sp)
9d004e74:	03e00008 	jr	ra
9d004e78:	27bd0018 	addiu	sp,sp,24

Disassembly of section .text._fwrite_simple:

9d004e7c <_fwrite_simple>:
9d004e7c:	27bdffd8 	addiu	sp,sp,-40
9d004e80:	afbf0024 	sw	ra,36(sp)
9d004e84:	afb10020 	sw	s1,32(sp)
9d004e88:	afb0001c 	sw	s0,28(sp)
9d004e8c:	70c58002 	mul	s0,a2,a1
9d004e90:	12000007 	beqz	s0,9d004eb0 <_fwrite_simple+0x34>
9d004e94:	00001021 	move	v0,zero
9d004e98:	94e30010 	lhu	v1,16(a3)
9d004e9c:	30630001 	andi	v1,v1,0x1
9d004ea0:	10600008 	beqz	v1,9d004ec4 <_fwrite_simple+0x48>
9d004ea4:	3c03a000 	lui	v1,0xa000
9d004ea8:	24040009 	li	a0,9
9d004eac:	ac64000c 	sw	a0,12(v1)
9d004eb0:	8fbf0024 	lw	ra,36(sp)
9d004eb4:	8fb10020 	lw	s1,32(sp)
9d004eb8:	8fb0001c 	lw	s0,28(sp)
9d004ebc:	03e00008 	jr	ra
9d004ec0:	27bd0028 	addiu	sp,sp,40
9d004ec4:	00808821 	move	s1,a0
9d004ec8:	00e02021 	move	a0,a3
9d004ecc:	0f40137f 	jal	9d004dfc <_fflush_simple>
9d004ed0:	afa60010 	sw	a2,16(sp)
9d004ed4:	02202021 	move	a0,s1
9d004ed8:	0f401469 	jal	9d0051a4 <.LFE0>
9d004edc:	02002821 	move	a1,s0
9d004ee0:	8fa60010 	lw	a2,16(sp)
9d004ee4:	00c01021 	move	v0,a2
9d004ee8:	8fbf0024 	lw	ra,36(sp)
9d004eec:	8fb10020 	lw	s1,32(sp)
9d004ef0:	8fb0001c 	lw	s0,28(sp)
9d004ef4:	03e00008 	jr	ra
9d004ef8:	27bd0028 	addiu	sp,sp,40

Disassembly of section .text.fptoli:

9d004efc <__fixsfsi>:
9d004efc:	00042a00 3c018000 00a12825 00043dc2     .*.....<%(...=..
9d004f0c:	30e700ff 2406009e 00c73023 18c0000d     ...0...$#0......
9d004f1c:	00000000 28c10020 14200003 00000000     .... ..(.. .....
9d004f2c:	10000005 24020000                       .......$

9d004f34 <i42>:
9d004f34:	04810002 	bgez	a0,9d004f40 <i43>
9d004f38:	00c52806 	srlv	a1,a1,a2
9d004f3c:	00052823 	negu	a1,a1

9d004f40 <i43>:
9d004f40:	00051025 	or	v0,zero,a1

9d004f44 <G999>:
9d004f44:	03e00008 	jr	ra
9d004f48:	00000000 	nop
9d004f4c:	00000000 	nop

9d004f50 <Gspec>:
9d004f50:	3c017f80 	lui	at,0x7f80
9d004f54:	34210001 	ori	at,at,0x1
9d004f58:	0081082b 	sltu	at,a0,at
9d004f5c:	14200003 	bnez	at,9d004f6c <i44>
9d004f60:	00000000 	nop
9d004f64:	1000fff7 	b	9d004f44 <G999>
9d004f68:	3c028000 	lui	v0,0x8000

9d004f6c <i44>:
9d004f6c:	3c027fff 	lui	v0,0x7fff
9d004f70:	1000fff4 	b	9d004f44 <G999>
9d004f74:	3442ffff 	ori	v0,v0,0xffff
9d004f78:	00000000 	nop

Disassembly of section .text._sprintf_cdfFnopuxX:

9d004f7c <_sprintf_cdfFnopuxX>:
9d004f7c:	27bdffc8 	addiu	sp,sp,-56
9d004f80:	afbf0034 	sw	ra,52(sp)
9d004f84:	27a20040 	addiu	v0,sp,64
9d004f88:	00801821 	move	v1,a0
9d004f8c:	afa60040 	sw	a2,64(sp)
9d004f90:	27a40010 	addiu	a0,sp,16
9d004f94:	00403021 	move	a2,v0
9d004f98:	afa70044 	sw	a3,68(sp)
9d004f9c:	2407ffff 	li	a3,-1
9d004fa0:	a7a70022 	sh	a3,34(sp)
9d004fa4:	24070082 	li	a3,130
9d004fa8:	a7a70020 	sh	a3,32(sp)
9d004fac:	3c077fff 	lui	a3,0x7fff
9d004fb0:	34e7fffe 	ori	a3,a3,0xfffe
9d004fb4:	afa70010 	sw	a3,16(sp)
9d004fb8:	afa30018 	sw	v1,24(sp)
9d004fbc:	afa30014 	sw	v1,20(sp)
9d004fc0:	3c039d00 	lui	v1,0x9d00
9d004fc4:	24635450 	addiu	v1,v1,21584
9d004fc8:	afa30028 	sw	v1,40(sp)
9d004fcc:	0f400780 	jal	9d001e00 <_do_print_cdfFnopuxX>
9d004fd0:	afa2002c 	sw	v0,44(sp)
9d004fd4:	8fa30014 	lw	v1,20(sp)
9d004fd8:	a0600000 	sb	zero,0(v1)
9d004fdc:	8fbf0034 	lw	ra,52(sp)
9d004fe0:	03e00008 	jr	ra
9d004fe4:	27bd0038 	addiu	sp,sp,56

Disassembly of section .text.__sputn:

9d004fe8 <__sputn>:
9d004fe8:	27bdffd8 	addiu	sp,sp,-40
9d004fec:	afbf0024 	sw	ra,36(sp)
9d004ff0:	afb30020 	sw	s3,32(sp)
9d004ff4:	afb2001c 	sw	s2,28(sp)
9d004ff8:	afb10018 	sw	s1,24(sp)
9d004ffc:	afb00014 	sw	s0,20(sp)
9d005000:	00808021 	move	s0,a0
9d005004:	00c09021 	move	s2,a2
9d005008:	00858821 	addu	s1,a0,a1
9d00500c:	0b40140a 	j	9d005028 <__sputn+0x40>
9d005010:	2413ffff 	li	s3,-1
9d005014:	26100001 	addiu	s0,s0,1
9d005018:	0f4012e1 	jal	9d004b84 <.LFE0>
9d00501c:	8204ffff 	lb	a0,-1(s0)
9d005020:	10530005 	beq	v0,s3,9d005038 <__sputn+0x50>
9d005024:	8fbf0024 	lw	ra,36(sp)
9d005028:	1611fffa 	bne	s0,s1,9d005014 <__sputn+0x2c>
9d00502c:	02402821 	move	a1,s2
9d005030:	00001021 	move	v0,zero
9d005034:	8fbf0024 	lw	ra,36(sp)
9d005038:	8fb30020 	lw	s3,32(sp)
9d00503c:	8fb2001c 	lw	s2,28(sp)
9d005040:	8fb10018 	lw	s1,24(sp)
9d005044:	8fb00014 	lw	s0,20(sp)
9d005048:	03e00008 	jr	ra
9d00504c:	27bd0028 	addiu	sp,sp,40

Disassembly of section .text.sitofp:

9d005050 <__floatsisf>:
9d005050:	3c018000 10800012 00813024 04810002     ...<....$0......
9d005060:	00000000 00042023                       ....# ..

9d005068 <i40>:
9d005068:	2405009e 	li	a1,158
9d00506c:	70873820 	clz	a3,a0
9d005070:	00a72823 	subu	a1,a1,a3
9d005074:	00e42004 	sllv	a0,a0,a3
9d005078:	24840080 	addiu	a0,a0,128
9d00507c:	2c880080 	sltiu	t0,a0,128
9d005080:	00a82821 	addu	a1,a1,t0
9d005084:	00044203 	sra	t0,a0,0x8
9d005088:	31080001 	andi	t0,t0,0x1
9d00508c:	00882023 	subu	a0,a0,t0
9d005090:	00042040 	sll	a0,a0,0x1
9d005094:	00042242 	srl	a0,a0,0x9
9d005098:	000545c0 	sll	t0,a1,0x17
9d00509c:	00882025 	or	a0,a0,t0

9d0050a0 <i39>:
9d0050a0:	00861025 	or	v0,a0,a2

9d0050a4 <E999>:
9d0050a4:	03e00008 	jr	ra
9d0050a8:	00000000 	nop
9d0050ac:	00000000 	nop

Disassembly of section .text.main_entry:

9d0050b0 <_main_entry>:
9d0050b0:	3c040000 	lui	a0,0x0
9d0050b4:	27bdffe8 	addiu	sp,sp,-24
9d0050b8:	24840000 	addiu	a0,a0,0
9d0050bc:	10800003 	beqz	a0,9d0050cc <_main_entry+0x1c>
9d0050c0:	afbf0014 	sw	ra,20(sp)
9d0050c4:	0080f809 	jalr	a0
9d0050c8:	00000000 	nop
9d0050cc:	30840000 	andi	a0,a0,0x0
9d0050d0:	30a50000 	andi	a1,a1,0x0
9d0050d4:	3c089d00 	lui	t0,0x9d00
9d0050d8:	250837f8 	addiu	t0,t0,14328
9d0050dc:	0100f809 	jalr	t0
9d0050e0:	00000000 	nop

9d0050e4 <__crt0_exit>:
9d0050e4:	3c020000 24420000 10400003 00000000     ...<..B$..@.....
9d0050f4:	0040f809 00000000 1000fff9 00000000     ..@.............

Disassembly of section .rodata:

9d005104 <zeroData-0x8>:
9d005104:	6c756e28 	0x6c756e28
9d005108:	0000296c 	0x296c

9d00510c <zeroData>:
9d00510c:	30303030 30303030 30303030 30303030     0000000000000000
9d00511c:	30303030 30303030 30303030 30303030     0000000000000000

9d00512c <spaceData>:
9d00512c:	20202020 20202020 20202020 20202020                     
9d00513c:	20202020 20202020 20202020 20202020                     
9d00514c:	41200000 3c23d70a 40800000              .. A..#<...@

Disassembly of section .text:

9d005158 <__floatunsisf>:
9d005158:	27bdffe8 	addiu	sp,sp,-24
9d00515c:	afbf0014 	sw	ra,20(sp)
9d005160:	04800006 	bltz	a0,9d00517c <__floatunsisf+0x24>
9d005164:	00801021 	move	v0,a0
9d005168:	0f401414 	jal	9d005050 <__floatsisf>
9d00516c:	00000000 	nop
9d005170:	8fbf0014 	lw	ra,20(sp)
9d005174:	03e00008 	jr	ra
9d005178:	27bd0018 	addiu	sp,sp,24
9d00517c:	00042042 	srl	a0,a0,0x1
9d005180:	30420001 	andi	v0,v0,0x1
9d005184:	0f401414 	jal	9d005050 <__floatsisf>
9d005188:	00822025 	or	a0,a0,v0
9d00518c:	00402021 	move	a0,v0
9d005190:	0f400ea4 	jal	9d003a90 <__addsf3>
9d005194:	00402821 	move	a1,v0
9d005198:	8fbf0014 	lw	ra,20(sp)
9d00519c:	03e00008 	jr	ra
9d0051a0:	27bd0018 	addiu	sp,sp,24

Disassembly of section .text._mon_write:

9d0051a4 <_mon_write>:
9d0051a4:	27bdffe0 	addiu	sp,sp,-32

9d0051a8 <.LCFI0>:
9d0051a8:	afbf001c 	sw	ra,28(sp)
9d0051ac:	afb10018 	sw	s1,24(sp)
9d0051b0:	afb00014 	sw	s0,20(sp)
9d0051b4:	10800009 	beqz	a0,9d0051dc <.LCFI0+0x34>
9d0051b8:	00808021 	move	s0,a0
9d0051bc:	10a00007 	beqz	a1,9d0051dc <.LCFI0+0x34>
9d0051c0:	00a08821 	move	s1,a1
9d0051c4:	82040000 	lb	a0,0(s0)
9d0051c8:	2631ffff 	addiu	s1,s1,-1
9d0051cc:	0f4012ac 	jal	9d004ab0 <_mon_putc>
9d0051d0:	26100001 	addiu	s0,s0,1
9d0051d4:	5620fffc 	bnezl	s1,9d0051c8 <.LCFI0+0x20>
9d0051d8:	82040000 	lb	a0,0(s0)
9d0051dc:	8fbf001c 	lw	ra,28(sp)
9d0051e0:	8fb10018 	lw	s1,24(sp)
9d0051e4:	8fb00014 	lw	s0,20(sp)
9d0051e8:	03e00008 	jr	ra
9d0051ec:	27bd0020 	addiu	sp,sp,32

Disassembly of section .text._bootstrap_exception_handler:

9d0051f0 <_bootstrap_exception_handler>:
9d0051f0:	3c020000 	lui	v0,0x0
9d0051f4:	24420000 	addiu	v0,v0,0
9d0051f8:	10400005 	beqz	v0,9d005210 <_bootstrap_exception_handler+0x20>
9d0051fc:	3c020000 	lui	v0,0x0
9d005200:	24420000 	addiu	v0,v0,0
9d005204:	10400003 	beqz	v0,9d005214 <_bootstrap_exception_handler+0x24>
9d005208:	3c029d00 	lui	v0,0x9d00
9d00520c:	7000003f 	sdbbp
9d005210:	3c029d00 	lui	v0,0x9d00
9d005214:	244252c8 	addiu	v0,v0,21192
9d005218:	10400005 	beqz	v0,9d005230 <.LCFI2>
9d00521c:	00000000 	nop
9d005220:	27bdffe8 	addiu	sp,sp,-24

9d005224 <.LCFI0>:
9d005224:	afbf0014 	sw	ra,20(sp)
9d005228:	0040f809 	jalr	v0
9d00522c:	00000000 	nop

9d005230 <.LCFI2>:
9d005230:	0b40148c 	j	9d005230 <.LCFI2>
9d005234:	00000000 	nop

Disassembly of section .text._general_exception_handler:

9d005238 <_general_exception_handler>:
9d005238:	3c020000 	lui	v0,0x0
9d00523c:	24420000 	addiu	v0,v0,0
9d005240:	10400005 	beqz	v0,9d005258 <_general_exception_handler+0x20>
9d005244:	3c020000 	lui	v0,0x0
9d005248:	24420000 	addiu	v0,v0,0
9d00524c:	10400003 	beqz	v0,9d00525c <_general_exception_handler+0x24>
9d005250:	3c029d00 	lui	v0,0x9d00
9d005254:	7000003f 	sdbbp
9d005258:	3c029d00 	lui	v0,0x9d00
9d00525c:	244252c8 	addiu	v0,v0,21192
9d005260:	10400005 	beqz	v0,9d005278 <.LCFI2>
9d005264:	00000000 	nop
9d005268:	27bdffe8 	addiu	sp,sp,-24

9d00526c <.LCFI0>:
9d00526c:	afbf0014 	sw	ra,20(sp)
9d005270:	0040f809 	jalr	v0
9d005274:	00000000 	nop

9d005278 <.LCFI2>:
9d005278:	0b40149e 	j	9d005278 <.LCFI2>
9d00527c:	00000000 	nop

Disassembly of section .vector_default:

9d005280 <_DefaultInterrupt>:
9d005280:	3c020000 	lui	v0,0x0
9d005284:	24420000 	addiu	v0,v0,0
9d005288:	10400007 	beqz	v0,9d0052a8 <_DefaultInterrupt+0x28>
9d00528c:	3c020000 	lui	v0,0x0
9d005290:	24420000 	addiu	v0,v0,0
9d005294:	50400005 	beqzl	v0,9d0052ac <_DefaultInterrupt+0x2c>
9d005298:	3c029d00 	lui	v0,0x9d00
9d00529c:	7000003f 	sdbbp
9d0052a0:	03e00008 	jr	ra
9d0052a4:	00000000 	nop
9d0052a8:	3c029d00 	lui	v0,0x9d00
9d0052ac:	244252c8 	addiu	v0,v0,21192
9d0052b0:	10400003 	beqz	v0,9d0052c0 <_DefaultInterrupt+0x40>
9d0052b4:	00000000 	nop
9d0052b8:	0040f809 	jalr	v0
9d0052bc:	00000000 	nop
9d0052c0:	03e00008 	jr	ra
9d0052c4:	00000000 	nop

Disassembly of section .text:

9d0052c8 <__pic32_software_reset>:
9d0052c8:	41606000 	di
9d0052cc:	000000c0 	ehb
9d0052d0:	3c03aa99 	lui	v1,0xaa99
9d0052d4:	3c02bf81 	lui	v0,0xbf81
9d0052d8:	24636655 	addiu	v1,v1,26197
9d0052dc:	ac40f230 	sw	zero,-3536(v0)
9d0052e0:	ac43f230 	sw	v1,-3536(v0)
9d0052e4:	3c035566 	lui	v1,0x5566
9d0052e8:	346399aa 	ori	v1,v1,0x99aa
9d0052ec:	ac43f230 	sw	v1,-3536(v0)
9d0052f0:	3c02bf81 	lui	v0,0xbf81
9d0052f4:	24030001 	li	v1,1
9d0052f8:	ac43f618 	sw	v1,-2536(v0)
9d0052fc:	3c02bf81 	lui	v0,0xbf81
9d005300:	8c42f610 	lw	v0,-2544(v0)
9d005304:	0b4014b4 	j	9d0052d0 <__pic32_software_reset+0x8>
9d005308:	00000000 	nop

Disassembly of section .text._filbuf_simple:

9d00530c <_filbuf_simple>:
9d00530c:	8c820004 	lw	v0,4(a0)
9d005310:	2403ffff 	li	v1,-1
9d005314:	10430003 	beq	v0,v1,9d005324 <_filbuf_simple+0x18>
9d005318:	ac800000 	sw	zero,0(a0)
9d00531c:	03e00008 	jr	ra
9d005320:	ac830004 	sw	v1,4(a0)
9d005324:	27bdffe8 	addiu	sp,sp,-24
9d005328:	afbf0014 	sw	ra,20(sp)
9d00532c:	0f401207 	jal	9d00481c <_mon_getc>
9d005330:	24040001 	li	a0,1
9d005334:	8fbf0014 	lw	ra,20(sp)
9d005338:	03e00008 	jr	ra
9d00533c:	27bd0018 	addiu	sp,sp,24

Disassembly of section .text._fsync_simple:

9d005340 <_fsync_simple>:
9d005340:	94830010 	lhu	v1,16(a0)
9d005344:	00a32824 	and	a1,a1,v1
9d005348:	10a00007 	beqz	a1,9d005368 <_fsync_simple+0x28>
9d00534c:	24020001 	li	v0,1
9d005350:	34630040 	ori	v1,v1,0x40
9d005354:	a4830010 	sh	v1,16(a0)
9d005358:	24030009 	li	v1,9
9d00535c:	3c02a000 	lui	v0,0xa000
9d005360:	ac43000c 	sw	v1,12(v0)
9d005364:	00001021 	move	v0,zero
9d005368:	03e00008 	jr	ra
9d00536c:	00000000 	nop

Disassembly of section .text.putchar:

9d005370 <putchar>:
9d005370:	27bdffe8 	addiu	sp,sp,-24
9d005374:	afbf0014 	sw	ra,20(sp)
9d005378:	3c02a000 	lui	v0,0xa000
9d00537c:	8c420000 	lw	v0,0(v0)
9d005380:	0f4012e1 	jal	9d004b84 <.LFE0>
9d005384:	8c450004 	lw	a1,4(v0)
9d005388:	8fbf0014 	lw	ra,20(sp)
9d00538c:	03e00008 	jr	ra
9d005390:	27bd0018 	addiu	sp,sp,24

Disassembly of section .text._vfprintf_cdfFnopuxX:

9d005394 <_vfprintf_cdfFnopuxX>:
9d005394:	27bdffe8 	addiu	sp,sp,-24
9d005398:	afbf0014 	sw	ra,20(sp)
9d00539c:	0f400780 	jal	9d001e00 <_do_print_cdfFnopuxX>
9d0053a0:	00000000 	nop
9d0053a4:	8fbf0014 	lw	ra,20(sp)
9d0053a8:	03e00008 	jr	ra
9d0053ac:	27bd0018 	addiu	sp,sp,24

Disassembly of section .text.putc:

9d0053b0 <putc>:
9d0053b0:	27bdffe8 	addiu	sp,sp,-24
9d0053b4:	afbf0014 	sw	ra,20(sp)
9d0053b8:	0f4012e1 	jal	9d004b84 <.LFE0>
9d0053bc:	00000000 	nop
9d0053c0:	8fbf0014 	lw	ra,20(sp)
9d0053c4:	03e00008 	jr	ra
9d0053c8:	27bd0018 	addiu	sp,sp,24

Disassembly of section .text:

9d0053cc <set_mode>:
#include "utilities.h"

static volatile Mode_datatype mode;

void set_mode(Mode_datatype m){
	mode=m;
9d0053cc:	af848018 	sw	a0,-32744(gp)
9d0053d0:	03e00008 	jr	ra
9d0053d4:	00000000 	nop

9d0053d8 <get_mode>:
}

Mode_datatype get_mode(void){
	return mode;
9d0053d8:	8f828018 	lw	v0,-32744(gp)
9d0053dc:	03e00008 	jr	ra
9d0053e0:	00000000 	nop

Disassembly of section .rodata:

9d0053e4 <.LC0>:
9d0053e4:	0a0d6425 	j	98359094 <_bmxdudba_address+0x98339094>
9d0053e8:	00000000 	nop

9d0053ec <.LC1>:
9d0053ec:	0a0d6625 	j	98359894 <_bmxdudba_address+0x98339894>
9d0053f0:	00000000 	nop
9d0053f4:	3ffd70a4 	0x3ffd70a4
9d0053f8:	447f0000 	mfhc1	ra,$f0

Disassembly of section .text:

9d0053fc <_nmi_handler>:
9d0053fc:	401a6000 	mfc0	k0,c0_status
9d005400:	3c1bffbf 	lui	k1,0xffbf
9d005404:	377bffff 	ori	k1,k1,0xffff
9d005408:	035bd024 	and	k0,k0,k1
9d00540c:	409a6000 	mtc0	k0,c0_status
9d005410:	42000018 	eret

Disassembly of section .text._io_exit:

9d005414 <_io_exit>:
9d005414:	3c02a000 	lui	v0,0xa000
9d005418:	8c420000 	lw	v0,0(v0)
9d00541c:	24030001 	li	v1,1
9d005420:	03e00008 	jr	ra
9d005424:	ac430038 	sw	v1,56(v0)

Disassembly of section .rodata:

9d005428 <_io_funcs>:
9d005428:	9d00530c 9d004720 9d004dfc 9d004e7c     .S.. G...M..|N..
9d005438:	9d005340                                @S..

Disassembly of section .text._io_exit:

9d00543c <.text._io_exit>:
9d00543c:	3c02a000 	lui	v0,0xa000
9d005440:	8c420000 	lw	v0,0(v0)
9d005444:	24030001 	li	v1,1
9d005448:	03e00008 	jr	ra
9d00544c:	ac430038 	sw	v1,56(v0)

Disassembly of section .rodata:

9d005450 <_io_strfuncs>:
9d005450:	9d005474 9d00547c 9d005484 9d00548c     tT..|T...T...T..
9d005460:	9d005494                                .T..

Disassembly of section .text._on_reset:

9d005464 <_on_reset>:
9d005464:	03e00008 	jr	ra
9d005468:	00000000 	nop

Disassembly of section .text._on_bootstrap:

9d00546c <_on_bootstrap>:
9d00546c:	03e00008 	jr	ra
9d005470:	00000000 	nop

Disassembly of section .text._filbuf_string:

9d005474 <_filbuf_string>:
9d005474:	03e00008 	jr	ra
9d005478:	2402ffff 	li	v0,-1

Disassembly of section .text._flsbuf_string:

9d00547c <_flsbuf_string>:
9d00547c:	03e00008 	jr	ra
9d005480:	00801021 	move	v0,a0

Disassembly of section .text._fflush_string:

9d005484 <_fflush_string>:
9d005484:	03e00008 	jr	ra
9d005488:	00001021 	move	v0,zero

Disassembly of section .text._fwrite_string:

9d00548c <_fwrite_string>:
9d00548c:	03e00008 	jr	ra
9d005490:	00001021 	move	v0,zero

Disassembly of section .text._fsync_string:

9d005494 <_fsync_string>:
9d005494:	03e00008 	jr	ra
9d005498:	24020001 	li	v0,1
